
main.elf:     file format elf32-littlearm


Disassembly of section .text:

00000000 <g_pfnVectors>:
       0:	00 80 01 20 61 61 00 00 a5 61 00 00 a5 61 00 00     ... aa...a...a..
      10:	a5 61 00 00 a5 61 00 00 a5 61 00 00 00 00 00 00     .a...a...a......
	...
      2c:	b1 56 00 00 a5 61 00 00 00 00 00 00 bd 57 00 00     .V...a.......W..
      3c:	f9 57 00 00 a5 61 00 00 a5 61 00 00 a5 61 00 00     .W...a...a...a..
      4c:	a5 61 00 00 a5 61 00 00 a5 61 00 00 a5 61 00 00     .a...a...a...a..
      5c:	a5 61 00 00 a5 61 00 00 a5 61 00 00 a5 61 00 00     .a...a...a...a..
      6c:	a5 61 00 00 a5 61 00 00 a5 61 00 00 a5 61 00 00     .a...a...a...a..
      7c:	a5 61 00 00 a5 61 00 00 a5 61 00 00 a5 61 00 00     .a...a...a...a..
      8c:	a5 61 00 00 a5 61 00 00 a5 61 00 00 a5 61 00 00     .a...a...a...a..
      9c:	a5 61 00 00 a5 61 00 00 a5 61 00 00 a5 61 00 00     .a...a...a...a..
      ac:	a5 61 00 00 a5 61 00 00 a5 61 00 00 a5 61 00 00     .a...a...a...a..
      bc:	a5 61 00 00 a5 61 00 00 a5 61 00 00 a5 61 00 00     .a...a...a...a..
      cc:	a5 61 00 00 a5 61 00 00 a5 61 00 00 a5 61 00 00     .a...a...a...a..
      dc:	a5 61 00 00 a5 61 00 00 a5 61 00 00 a5 61 00 00     .a...a...a...a..
	...
     108:	5f f8 08 f1                                         _...

0000010c <__get_PSP>:
     10c:	2400      	movs	r4, #0
     10e:	f3ef 8309 	mrs	r3, PSP
     112:	4618      	mov	r0, r3
     114:	4770      	bx	lr
     116:	461c      	mov	r4, r3
     118:	4623      	mov	r3, r4
     11a:	4618      	mov	r0, r3

0000011c <__set_PSP>:
     11c:	4603      	mov	r3, r0
     11e:	f383 8809 	msr	PSP, r3
     122:	4770      	bx	lr

00000124 <__get_MSP>:
     124:	2400      	movs	r4, #0
     126:	f3ef 8308 	mrs	r3, MSP
     12a:	4618      	mov	r0, r3
     12c:	4770      	bx	lr
     12e:	461c      	mov	r4, r3
     130:	4623      	mov	r3, r4
     132:	4618      	mov	r0, r3

00000134 <__set_MSP>:
     134:	4603      	mov	r3, r0
     136:	f383 8808 	msr	MSP, r3
     13a:	4770      	bx	lr

0000013c <__get_BASEPRI>:
     13c:	b480      	push	{r7}
     13e:	b083      	sub	sp, #12
     140:	af00      	add	r7, sp, #0
     142:	2300      	movs	r3, #0
     144:	607b      	str	r3, [r7, #4]
     146:	f3ef 8312 	mrs	r3, BASEPRI_MAX
     14a:	607b      	str	r3, [r7, #4]
     14c:	687b      	ldr	r3, [r7, #4]
     14e:	4618      	mov	r0, r3
     150:	370c      	adds	r7, #12
     152:	46bd      	mov	sp, r7
     154:	f85d 7b04 	ldr.w	r7, [sp], #4
     158:	4770      	bx	lr
     15a:	bf00      	nop

0000015c <__set_BASEPRI>:
     15c:	b480      	push	{r7}
     15e:	b083      	sub	sp, #12
     160:	af00      	add	r7, sp, #0
     162:	6078      	str	r0, [r7, #4]
     164:	687b      	ldr	r3, [r7, #4]
     166:	f383 8811 	msr	BASEPRI, r3
     16a:	370c      	adds	r7, #12
     16c:	46bd      	mov	sp, r7
     16e:	f85d 7b04 	ldr.w	r7, [sp], #4
     172:	4770      	bx	lr

00000174 <__get_PRIMASK>:
     174:	b480      	push	{r7}
     176:	b083      	sub	sp, #12
     178:	af00      	add	r7, sp, #0
     17a:	2300      	movs	r3, #0
     17c:	607b      	str	r3, [r7, #4]
     17e:	f3ef 8310 	mrs	r3, PRIMASK
     182:	607b      	str	r3, [r7, #4]
     184:	687b      	ldr	r3, [r7, #4]
     186:	4618      	mov	r0, r3
     188:	370c      	adds	r7, #12
     18a:	46bd      	mov	sp, r7
     18c:	f85d 7b04 	ldr.w	r7, [sp], #4
     190:	4770      	bx	lr
     192:	bf00      	nop

00000194 <__set_PRIMASK>:
     194:	b480      	push	{r7}
     196:	b083      	sub	sp, #12
     198:	af00      	add	r7, sp, #0
     19a:	6078      	str	r0, [r7, #4]
     19c:	687b      	ldr	r3, [r7, #4]
     19e:	f383 8810 	msr	PRIMASK, r3
     1a2:	370c      	adds	r7, #12
     1a4:	46bd      	mov	sp, r7
     1a6:	f85d 7b04 	ldr.w	r7, [sp], #4
     1aa:	4770      	bx	lr

000001ac <__get_FAULTMASK>:
     1ac:	b480      	push	{r7}
     1ae:	b083      	sub	sp, #12
     1b0:	af00      	add	r7, sp, #0
     1b2:	2300      	movs	r3, #0
     1b4:	607b      	str	r3, [r7, #4]
     1b6:	f3ef 8313 	mrs	r3, FAULTMASK
     1ba:	607b      	str	r3, [r7, #4]
     1bc:	687b      	ldr	r3, [r7, #4]
     1be:	4618      	mov	r0, r3
     1c0:	370c      	adds	r7, #12
     1c2:	46bd      	mov	sp, r7
     1c4:	f85d 7b04 	ldr.w	r7, [sp], #4
     1c8:	4770      	bx	lr
     1ca:	bf00      	nop

000001cc <__set_FAULTMASK>:
     1cc:	b480      	push	{r7}
     1ce:	b083      	sub	sp, #12
     1d0:	af00      	add	r7, sp, #0
     1d2:	6078      	str	r0, [r7, #4]
     1d4:	687b      	ldr	r3, [r7, #4]
     1d6:	f383 8813 	msr	FAULTMASK, r3
     1da:	370c      	adds	r7, #12
     1dc:	46bd      	mov	sp, r7
     1de:	f85d 7b04 	ldr.w	r7, [sp], #4
     1e2:	4770      	bx	lr

000001e4 <__get_CONTROL>:
     1e4:	b480      	push	{r7}
     1e6:	b083      	sub	sp, #12
     1e8:	af00      	add	r7, sp, #0
     1ea:	2300      	movs	r3, #0
     1ec:	607b      	str	r3, [r7, #4]
     1ee:	f3ef 8314 	mrs	r3, CONTROL
     1f2:	607b      	str	r3, [r7, #4]
     1f4:	687b      	ldr	r3, [r7, #4]
     1f6:	4618      	mov	r0, r3
     1f8:	370c      	adds	r7, #12
     1fa:	46bd      	mov	sp, r7
     1fc:	f85d 7b04 	ldr.w	r7, [sp], #4
     200:	4770      	bx	lr
     202:	bf00      	nop

00000204 <__set_CONTROL>:
     204:	b480      	push	{r7}
     206:	b083      	sub	sp, #12
     208:	af00      	add	r7, sp, #0
     20a:	6078      	str	r0, [r7, #4]
     20c:	687b      	ldr	r3, [r7, #4]
     20e:	f383 8814 	msr	CONTROL, r3
     212:	370c      	adds	r7, #12
     214:	46bd      	mov	sp, r7
     216:	f85d 7b04 	ldr.w	r7, [sp], #4
     21a:	4770      	bx	lr

0000021c <__REV>:
     21c:	b480      	push	{r7}
     21e:	b085      	sub	sp, #20
     220:	af00      	add	r7, sp, #0
     222:	6078      	str	r0, [r7, #4]
     224:	2300      	movs	r3, #0
     226:	60fb      	str	r3, [r7, #12]
     228:	687b      	ldr	r3, [r7, #4]
     22a:	ba1b      	rev	r3, r3
     22c:	60fb      	str	r3, [r7, #12]
     22e:	68fb      	ldr	r3, [r7, #12]
     230:	4618      	mov	r0, r3
     232:	3714      	adds	r7, #20
     234:	46bd      	mov	sp, r7
     236:	f85d 7b04 	ldr.w	r7, [sp], #4
     23a:	4770      	bx	lr

0000023c <__REV16>:
     23c:	b480      	push	{r7}
     23e:	b085      	sub	sp, #20
     240:	af00      	add	r7, sp, #0
     242:	4603      	mov	r3, r0
     244:	80fb      	strh	r3, [r7, #6]
     246:	2300      	movs	r3, #0
     248:	60fb      	str	r3, [r7, #12]
     24a:	88fb      	ldrh	r3, [r7, #6]
     24c:	ba5b      	rev16	r3, r3
     24e:	60fb      	str	r3, [r7, #12]
     250:	68fb      	ldr	r3, [r7, #12]
     252:	4618      	mov	r0, r3
     254:	3714      	adds	r7, #20
     256:	46bd      	mov	sp, r7
     258:	f85d 7b04 	ldr.w	r7, [sp], #4
     25c:	4770      	bx	lr
     25e:	bf00      	nop

00000260 <__REVSH>:
     260:	b480      	push	{r7}
     262:	b085      	sub	sp, #20
     264:	af00      	add	r7, sp, #0
     266:	4603      	mov	r3, r0
     268:	80fb      	strh	r3, [r7, #6]
     26a:	2300      	movs	r3, #0
     26c:	60fb      	str	r3, [r7, #12]
     26e:	88fb      	ldrh	r3, [r7, #6]
     270:	badb      	revsh	r3, r3
     272:	60fb      	str	r3, [r7, #12]
     274:	68fb      	ldr	r3, [r7, #12]
     276:	4618      	mov	r0, r3
     278:	3714      	adds	r7, #20
     27a:	46bd      	mov	sp, r7
     27c:	f85d 7b04 	ldr.w	r7, [sp], #4
     280:	4770      	bx	lr
     282:	bf00      	nop

00000284 <__RBIT>:
     284:	b480      	push	{r7}
     286:	b085      	sub	sp, #20
     288:	af00      	add	r7, sp, #0
     28a:	6078      	str	r0, [r7, #4]
     28c:	2300      	movs	r3, #0
     28e:	60fb      	str	r3, [r7, #12]
     290:	687b      	ldr	r3, [r7, #4]
     292:	fa93 f3a3 	rbit	r3, r3
     296:	60fb      	str	r3, [r7, #12]
     298:	68fb      	ldr	r3, [r7, #12]
     29a:	4618      	mov	r0, r3
     29c:	3714      	adds	r7, #20
     29e:	46bd      	mov	sp, r7
     2a0:	f85d 7b04 	ldr.w	r7, [sp], #4
     2a4:	4770      	bx	lr
     2a6:	bf00      	nop

000002a8 <__LDREXB>:
     2a8:	b480      	push	{r7}
     2aa:	b085      	sub	sp, #20
     2ac:	af00      	add	r7, sp, #0
     2ae:	6078      	str	r0, [r7, #4]
     2b0:	2300      	movs	r3, #0
     2b2:	73fb      	strb	r3, [r7, #15]
     2b4:	687b      	ldr	r3, [r7, #4]
     2b6:	e8d3 3f4f 	ldrexb	r3, [r3]
     2ba:	73fb      	strb	r3, [r7, #15]
     2bc:	7bfb      	ldrb	r3, [r7, #15]
     2be:	4618      	mov	r0, r3
     2c0:	3714      	adds	r7, #20
     2c2:	46bd      	mov	sp, r7
     2c4:	f85d 7b04 	ldr.w	r7, [sp], #4
     2c8:	4770      	bx	lr
     2ca:	bf00      	nop

000002cc <__LDREXH>:
     2cc:	b480      	push	{r7}
     2ce:	b085      	sub	sp, #20
     2d0:	af00      	add	r7, sp, #0
     2d2:	6078      	str	r0, [r7, #4]
     2d4:	2300      	movs	r3, #0
     2d6:	81fb      	strh	r3, [r7, #14]
     2d8:	687b      	ldr	r3, [r7, #4]
     2da:	e8d3 3f5f 	ldrexh	r3, [r3]
     2de:	81fb      	strh	r3, [r7, #14]
     2e0:	89fb      	ldrh	r3, [r7, #14]
     2e2:	4618      	mov	r0, r3
     2e4:	3714      	adds	r7, #20
     2e6:	46bd      	mov	sp, r7
     2e8:	f85d 7b04 	ldr.w	r7, [sp], #4
     2ec:	4770      	bx	lr
     2ee:	bf00      	nop

000002f0 <__LDREXW>:
     2f0:	b480      	push	{r7}
     2f2:	b085      	sub	sp, #20
     2f4:	af00      	add	r7, sp, #0
     2f6:	6078      	str	r0, [r7, #4]
     2f8:	2300      	movs	r3, #0
     2fa:	60fb      	str	r3, [r7, #12]
     2fc:	687b      	ldr	r3, [r7, #4]
     2fe:	e853 3f00 	ldrex	r3, [r3]
     302:	60fb      	str	r3, [r7, #12]
     304:	68fb      	ldr	r3, [r7, #12]
     306:	4618      	mov	r0, r3
     308:	3714      	adds	r7, #20
     30a:	46bd      	mov	sp, r7
     30c:	f85d 7b04 	ldr.w	r7, [sp], #4
     310:	4770      	bx	lr
     312:	bf00      	nop

00000314 <__STREXW>:
     314:	b480      	push	{r7}
     316:	b085      	sub	sp, #20
     318:	af00      	add	r7, sp, #0
     31a:	6078      	str	r0, [r7, #4]
     31c:	6039      	str	r1, [r7, #0]
     31e:	2300      	movs	r3, #0
     320:	60fb      	str	r3, [r7, #12]
     322:	683b      	ldr	r3, [r7, #0]
     324:	687a      	ldr	r2, [r7, #4]
     326:	e843 2300 	strex	r3, r2, [r3]
     32a:	60fb      	str	r3, [r7, #12]
     32c:	68fb      	ldr	r3, [r7, #12]
     32e:	4618      	mov	r0, r3
     330:	3714      	adds	r7, #20
     332:	46bd      	mov	sp, r7
     334:	f85d 7b04 	ldr.w	r7, [sp], #4
     338:	4770      	bx	lr
     33a:	bf00      	nop

0000033c <SystemInit>:
     33c:	b580      	push	{r7, lr}
     33e:	af00      	add	r7, sp, #0
     340:	f44f 5380 	mov.w	r3, #4096	; 0x1000
     344:	f2c4 0302 	movt	r3, #16386	; 0x4002
     348:	f44f 5280 	mov.w	r2, #4096	; 0x1000
     34c:	f2c4 0202 	movt	r2, #16386	; 0x4002
     350:	6812      	ldr	r2, [r2, #0]
     352:	f042 0201 	orr.w	r2, r2, #1
     356:	601a      	str	r2, [r3, #0]
     358:	f44f 5280 	mov.w	r2, #4096	; 0x1000
     35c:	f2c4 0202 	movt	r2, #16386	; 0x4002
     360:	f44f 5380 	mov.w	r3, #4096	; 0x1000
     364:	f2c4 0302 	movt	r3, #16386	; 0x4002
     368:	6859      	ldr	r1, [r3, #4]
     36a:	2300      	movs	r3, #0
     36c:	f6cf 03ff 	movt	r3, #63743	; 0xf8ff
     370:	400b      	ands	r3, r1
     372:	6053      	str	r3, [r2, #4]
     374:	f44f 5380 	mov.w	r3, #4096	; 0x1000
     378:	f2c4 0302 	movt	r3, #16386	; 0x4002
     37c:	f44f 5280 	mov.w	r2, #4096	; 0x1000
     380:	f2c4 0202 	movt	r2, #16386	; 0x4002
     384:	6812      	ldr	r2, [r2, #0]
     386:	f022 7284 	bic.w	r2, r2, #17301504	; 0x1080000
     38a:	f422 3280 	bic.w	r2, r2, #65536	; 0x10000
     38e:	601a      	str	r2, [r3, #0]
     390:	f44f 5380 	mov.w	r3, #4096	; 0x1000
     394:	f2c4 0302 	movt	r3, #16386	; 0x4002
     398:	f44f 5280 	mov.w	r2, #4096	; 0x1000
     39c:	f2c4 0202 	movt	r2, #16386	; 0x4002
     3a0:	6812      	ldr	r2, [r2, #0]
     3a2:	f422 2280 	bic.w	r2, r2, #262144	; 0x40000
     3a6:	601a      	str	r2, [r3, #0]
     3a8:	f44f 5380 	mov.w	r3, #4096	; 0x1000
     3ac:	f2c4 0302 	movt	r3, #16386	; 0x4002
     3b0:	f44f 5280 	mov.w	r2, #4096	; 0x1000
     3b4:	f2c4 0202 	movt	r2, #16386	; 0x4002
     3b8:	6852      	ldr	r2, [r2, #4]
     3ba:	f422 02fe 	bic.w	r2, r2, #8323072	; 0x7f0000
     3be:	605a      	str	r2, [r3, #4]
     3c0:	f44f 5380 	mov.w	r3, #4096	; 0x1000
     3c4:	f2c4 0302 	movt	r3, #16386	; 0x4002
     3c8:	f44f 021f 	mov.w	r2, #10420224	; 0x9f0000
     3cc:	609a      	str	r2, [r3, #8]
     3ce:	f000 f8a7 	bl	520 <SetSysClock>
     3d2:	f44f 436d 	mov.w	r3, #60672	; 0xed00
     3d6:	f2ce 0300 	movt	r3, #57344	; 0xe000
     3da:	f04f 6200 	mov.w	r2, #134217728	; 0x8000000
     3de:	609a      	str	r2, [r3, #8]
     3e0:	bd80      	pop	{r7, pc}
     3e2:	bf00      	nop

000003e4 <SystemCoreClockUpdate>:
     3e4:	b480      	push	{r7}
     3e6:	b085      	sub	sp, #20
     3e8:	af00      	add	r7, sp, #0
     3ea:	2300      	movs	r3, #0
     3ec:	60fb      	str	r3, [r7, #12]
     3ee:	2300      	movs	r3, #0
     3f0:	60bb      	str	r3, [r7, #8]
     3f2:	2300      	movs	r3, #0
     3f4:	607b      	str	r3, [r7, #4]
     3f6:	f44f 5380 	mov.w	r3, #4096	; 0x1000
     3fa:	f2c4 0302 	movt	r3, #16386	; 0x4002
     3fe:	685b      	ldr	r3, [r3, #4]
     400:	f003 030c 	and.w	r3, r3, #12
     404:	60fb      	str	r3, [r7, #12]
     406:	68fb      	ldr	r3, [r7, #12]
     408:	2b04      	cmp	r3, #4
     40a:	d00d      	beq.n	428 <SystemCoreClockUpdate+0x44>
     40c:	2b08      	cmp	r3, #8
     40e:	d015      	beq.n	43c <SystemCoreClockUpdate+0x58>
     410:	2b00      	cmp	r3, #0
     412:	d15b      	bne.n	4cc <SystemCoreClockUpdate+0xe8>
     414:	f240 0300 	movw	r3, #0
     418:	f2c2 0300 	movt	r3, #8192	; 0x2000
     41c:	f44f 5290 	mov.w	r2, #4608	; 0x1200
     420:	f2c0 027a 	movt	r2, #122	; 0x7a
     424:	601a      	str	r2, [r3, #0]
     426:	e05b      	b.n	4e0 <SystemCoreClockUpdate+0xfc>
     428:	f240 0300 	movw	r3, #0
     42c:	f2c2 0300 	movt	r3, #8192	; 0x2000
     430:	f44f 5290 	mov.w	r2, #4608	; 0x1200
     434:	f2c0 027a 	movt	r2, #122	; 0x7a
     438:	601a      	str	r2, [r3, #0]
     43a:	e051      	b.n	4e0 <SystemCoreClockUpdate+0xfc>
     43c:	f44f 5380 	mov.w	r3, #4096	; 0x1000
     440:	f2c4 0302 	movt	r3, #16386	; 0x4002
     444:	685b      	ldr	r3, [r3, #4]
     446:	f403 1370 	and.w	r3, r3, #3932160	; 0x3c0000
     44a:	60bb      	str	r3, [r7, #8]
     44c:	f44f 5380 	mov.w	r3, #4096	; 0x1000
     450:	f2c4 0302 	movt	r3, #16386	; 0x4002
     454:	685b      	ldr	r3, [r3, #4]
     456:	f403 3380 	and.w	r3, r3, #65536	; 0x10000
     45a:	607b      	str	r3, [r7, #4]
     45c:	68bb      	ldr	r3, [r7, #8]
     45e:	0c9b      	lsrs	r3, r3, #18
     460:	3302      	adds	r3, #2
     462:	60bb      	str	r3, [r7, #8]
     464:	687b      	ldr	r3, [r7, #4]
     466:	2b00      	cmp	r3, #0
     468:	d10c      	bne.n	484 <SystemCoreClockUpdate+0xa0>
     46a:	68ba      	ldr	r2, [r7, #8]
     46c:	f44f 6310 	mov.w	r3, #2304	; 0x900
     470:	f2c0 033d 	movt	r3, #61	; 0x3d
     474:	fb03 f202 	mul.w	r2, r3, r2
     478:	f240 0300 	movw	r3, #0
     47c:	f2c2 0300 	movt	r3, #8192	; 0x2000
     480:	601a      	str	r2, [r3, #0]
     482:	e022      	b.n	4ca <SystemCoreClockUpdate+0xe6>
     484:	f44f 5380 	mov.w	r3, #4096	; 0x1000
     488:	f2c4 0302 	movt	r3, #16386	; 0x4002
     48c:	685b      	ldr	r3, [r3, #4]
     48e:	f403 3300 	and.w	r3, r3, #131072	; 0x20000
     492:	2b00      	cmp	r3, #0
     494:	d00c      	beq.n	4b0 <SystemCoreClockUpdate+0xcc>
     496:	68ba      	ldr	r2, [r7, #8]
     498:	f44f 6310 	mov.w	r3, #2304	; 0x900
     49c:	f2c0 033d 	movt	r3, #61	; 0x3d
     4a0:	fb03 f202 	mul.w	r2, r3, r2
     4a4:	f240 0300 	movw	r3, #0
     4a8:	f2c2 0300 	movt	r3, #8192	; 0x2000
     4ac:	601a      	str	r2, [r3, #0]
     4ae:	e00c      	b.n	4ca <SystemCoreClockUpdate+0xe6>
     4b0:	68ba      	ldr	r2, [r7, #8]
     4b2:	f44f 5390 	mov.w	r3, #4608	; 0x1200
     4b6:	f2c0 037a 	movt	r3, #122	; 0x7a
     4ba:	fb03 f202 	mul.w	r2, r3, r2
     4be:	f240 0300 	movw	r3, #0
     4c2:	f2c2 0300 	movt	r3, #8192	; 0x2000
     4c6:	601a      	str	r2, [r3, #0]
     4c8:	e00a      	b.n	4e0 <SystemCoreClockUpdate+0xfc>
     4ca:	e009      	b.n	4e0 <SystemCoreClockUpdate+0xfc>
     4cc:	f240 0300 	movw	r3, #0
     4d0:	f2c2 0300 	movt	r3, #8192	; 0x2000
     4d4:	f44f 5290 	mov.w	r2, #4608	; 0x1200
     4d8:	f2c0 027a 	movt	r2, #122	; 0x7a
     4dc:	601a      	str	r2, [r3, #0]
     4de:	bf00      	nop
     4e0:	f44f 5380 	mov.w	r3, #4096	; 0x1000
     4e4:	f2c4 0302 	movt	r3, #16386	; 0x4002
     4e8:	685b      	ldr	r3, [r3, #4]
     4ea:	f003 03f0 	and.w	r3, r3, #240	; 0xf0
     4ee:	091a      	lsrs	r2, r3, #4
     4f0:	f240 0304 	movw	r3, #4
     4f4:	f2c2 0300 	movt	r3, #8192	; 0x2000
     4f8:	5c9b      	ldrb	r3, [r3, r2]
     4fa:	b2db      	uxtb	r3, r3
     4fc:	60fb      	str	r3, [r7, #12]
     4fe:	f240 0300 	movw	r3, #0
     502:	f2c2 0300 	movt	r3, #8192	; 0x2000
     506:	681a      	ldr	r2, [r3, #0]
     508:	68fb      	ldr	r3, [r7, #12]
     50a:	40da      	lsrs	r2, r3
     50c:	f240 0300 	movw	r3, #0
     510:	f2c2 0300 	movt	r3, #8192	; 0x2000
     514:	601a      	str	r2, [r3, #0]
     516:	3714      	adds	r7, #20
     518:	46bd      	mov	sp, r7
     51a:	f85d 7b04 	ldr.w	r7, [sp], #4
     51e:	4770      	bx	lr

00000520 <SetSysClock>:
     520:	b580      	push	{r7, lr}
     522:	af00      	add	r7, sp, #0
     524:	f000 f802 	bl	52c <SetSysClockTo72>
     528:	bd80      	pop	{r7, pc}
     52a:	bf00      	nop

0000052c <SetSysClockTo72>:
     52c:	b480      	push	{r7}
     52e:	b083      	sub	sp, #12
     530:	af00      	add	r7, sp, #0
     532:	2300      	movs	r3, #0
     534:	607b      	str	r3, [r7, #4]
     536:	2300      	movs	r3, #0
     538:	603b      	str	r3, [r7, #0]
     53a:	f44f 5380 	mov.w	r3, #4096	; 0x1000
     53e:	f2c4 0302 	movt	r3, #16386	; 0x4002
     542:	f44f 5280 	mov.w	r2, #4096	; 0x1000
     546:	f2c4 0202 	movt	r2, #16386	; 0x4002
     54a:	6812      	ldr	r2, [r2, #0]
     54c:	f442 3280 	orr.w	r2, r2, #65536	; 0x10000
     550:	601a      	str	r2, [r3, #0]
     552:	f44f 5380 	mov.w	r3, #4096	; 0x1000
     556:	f2c4 0302 	movt	r3, #16386	; 0x4002
     55a:	681b      	ldr	r3, [r3, #0]
     55c:	f403 3300 	and.w	r3, r3, #131072	; 0x20000
     560:	603b      	str	r3, [r7, #0]
     562:	687b      	ldr	r3, [r7, #4]
     564:	3301      	adds	r3, #1
     566:	607b      	str	r3, [r7, #4]
     568:	683b      	ldr	r3, [r7, #0]
     56a:	2b00      	cmp	r3, #0
     56c:	d103      	bne.n	576 <SetSysClockTo72+0x4a>
     56e:	687b      	ldr	r3, [r7, #4]
     570:	f5b3 6fa0 	cmp.w	r3, #1280	; 0x500
     574:	d1ed      	bne.n	552 <SetSysClockTo72+0x26>
     576:	f44f 5380 	mov.w	r3, #4096	; 0x1000
     57a:	f2c4 0302 	movt	r3, #16386	; 0x4002
     57e:	681b      	ldr	r3, [r3, #0]
     580:	f403 3300 	and.w	r3, r3, #131072	; 0x20000
     584:	2b00      	cmp	r3, #0
     586:	d002      	beq.n	58e <SetSysClockTo72+0x62>
     588:	2301      	movs	r3, #1
     58a:	603b      	str	r3, [r7, #0]
     58c:	e001      	b.n	592 <SetSysClockTo72+0x66>
     58e:	2300      	movs	r3, #0
     590:	603b      	str	r3, [r7, #0]
     592:	683b      	ldr	r3, [r7, #0]
     594:	2b01      	cmp	r3, #1
     596:	f040 8094 	bne.w	6c2 <SetSysClockTo72+0x196>
     59a:	f44f 5300 	mov.w	r3, #8192	; 0x2000
     59e:	f2c4 0302 	movt	r3, #16386	; 0x4002
     5a2:	f44f 5200 	mov.w	r2, #8192	; 0x2000
     5a6:	f2c4 0202 	movt	r2, #16386	; 0x4002
     5aa:	6812      	ldr	r2, [r2, #0]
     5ac:	f042 0210 	orr.w	r2, r2, #16
     5b0:	601a      	str	r2, [r3, #0]
     5b2:	f44f 5300 	mov.w	r3, #8192	; 0x2000
     5b6:	f2c4 0302 	movt	r3, #16386	; 0x4002
     5ba:	f44f 5200 	mov.w	r2, #8192	; 0x2000
     5be:	f2c4 0202 	movt	r2, #16386	; 0x4002
     5c2:	6812      	ldr	r2, [r2, #0]
     5c4:	f022 0203 	bic.w	r2, r2, #3
     5c8:	601a      	str	r2, [r3, #0]
     5ca:	f44f 5300 	mov.w	r3, #8192	; 0x2000
     5ce:	f2c4 0302 	movt	r3, #16386	; 0x4002
     5d2:	f44f 5200 	mov.w	r2, #8192	; 0x2000
     5d6:	f2c4 0202 	movt	r2, #16386	; 0x4002
     5da:	6812      	ldr	r2, [r2, #0]
     5dc:	f042 0202 	orr.w	r2, r2, #2
     5e0:	601a      	str	r2, [r3, #0]
     5e2:	f44f 5380 	mov.w	r3, #4096	; 0x1000
     5e6:	f2c4 0302 	movt	r3, #16386	; 0x4002
     5ea:	f44f 5280 	mov.w	r2, #4096	; 0x1000
     5ee:	f2c4 0202 	movt	r2, #16386	; 0x4002
     5f2:	6852      	ldr	r2, [r2, #4]
     5f4:	605a      	str	r2, [r3, #4]
     5f6:	f44f 5380 	mov.w	r3, #4096	; 0x1000
     5fa:	f2c4 0302 	movt	r3, #16386	; 0x4002
     5fe:	f44f 5280 	mov.w	r2, #4096	; 0x1000
     602:	f2c4 0202 	movt	r2, #16386	; 0x4002
     606:	6852      	ldr	r2, [r2, #4]
     608:	605a      	str	r2, [r3, #4]
     60a:	f44f 5380 	mov.w	r3, #4096	; 0x1000
     60e:	f2c4 0302 	movt	r3, #16386	; 0x4002
     612:	f44f 5280 	mov.w	r2, #4096	; 0x1000
     616:	f2c4 0202 	movt	r2, #16386	; 0x4002
     61a:	6852      	ldr	r2, [r2, #4]
     61c:	f442 6280 	orr.w	r2, r2, #1024	; 0x400
     620:	605a      	str	r2, [r3, #4]
     622:	f44f 5380 	mov.w	r3, #4096	; 0x1000
     626:	f2c4 0302 	movt	r3, #16386	; 0x4002
     62a:	f44f 5280 	mov.w	r2, #4096	; 0x1000
     62e:	f2c4 0202 	movt	r2, #16386	; 0x4002
     632:	6852      	ldr	r2, [r2, #4]
     634:	f422 127c 	bic.w	r2, r2, #4128768	; 0x3f0000
     638:	605a      	str	r2, [r3, #4]
     63a:	f44f 5380 	mov.w	r3, #4096	; 0x1000
     63e:	f2c4 0302 	movt	r3, #16386	; 0x4002
     642:	f44f 5280 	mov.w	r2, #4096	; 0x1000
     646:	f2c4 0202 	movt	r2, #16386	; 0x4002
     64a:	6852      	ldr	r2, [r2, #4]
     64c:	f442 12e8 	orr.w	r2, r2, #1900544	; 0x1d0000
     650:	605a      	str	r2, [r3, #4]
     652:	f44f 5380 	mov.w	r3, #4096	; 0x1000
     656:	f2c4 0302 	movt	r3, #16386	; 0x4002
     65a:	f44f 5280 	mov.w	r2, #4096	; 0x1000
     65e:	f2c4 0202 	movt	r2, #16386	; 0x4002
     662:	6812      	ldr	r2, [r2, #0]
     664:	f042 7280 	orr.w	r2, r2, #16777216	; 0x1000000
     668:	601a      	str	r2, [r3, #0]
     66a:	bf00      	nop
     66c:	f44f 5380 	mov.w	r3, #4096	; 0x1000
     670:	f2c4 0302 	movt	r3, #16386	; 0x4002
     674:	681b      	ldr	r3, [r3, #0]
     676:	f003 7300 	and.w	r3, r3, #33554432	; 0x2000000
     67a:	2b00      	cmp	r3, #0
     67c:	d0f6      	beq.n	66c <SetSysClockTo72+0x140>
     67e:	f44f 5380 	mov.w	r3, #4096	; 0x1000
     682:	f2c4 0302 	movt	r3, #16386	; 0x4002
     686:	f44f 5280 	mov.w	r2, #4096	; 0x1000
     68a:	f2c4 0202 	movt	r2, #16386	; 0x4002
     68e:	6852      	ldr	r2, [r2, #4]
     690:	f022 0203 	bic.w	r2, r2, #3
     694:	605a      	str	r2, [r3, #4]
     696:	f44f 5380 	mov.w	r3, #4096	; 0x1000
     69a:	f2c4 0302 	movt	r3, #16386	; 0x4002
     69e:	f44f 5280 	mov.w	r2, #4096	; 0x1000
     6a2:	f2c4 0202 	movt	r2, #16386	; 0x4002
     6a6:	6852      	ldr	r2, [r2, #4]
     6a8:	f042 0202 	orr.w	r2, r2, #2
     6ac:	605a      	str	r2, [r3, #4]
     6ae:	bf00      	nop
     6b0:	f44f 5380 	mov.w	r3, #4096	; 0x1000
     6b4:	f2c4 0302 	movt	r3, #16386	; 0x4002
     6b8:	685b      	ldr	r3, [r3, #4]
     6ba:	f003 030c 	and.w	r3, r3, #12
     6be:	2b08      	cmp	r3, #8
     6c0:	d1f6      	bne.n	6b0 <SetSysClockTo72+0x184>
     6c2:	370c      	adds	r7, #12
     6c4:	46bd      	mov	sp, r7
     6c6:	f85d 7b04 	ldr.w	r7, [sp], #4
     6ca:	4770      	bx	lr
     6cc:	0000626c 	.word	0x0000626c
     6d0:	20000000 	.word	0x20000000
     6d4:	2000003c 	.word	0x2000003c
     6d8:	20000040 	.word	0x20000040
     6dc:	20012f30 	.word	0x20012f30

000006e0 <RCC_DeInit>:
     6e0:	b480      	push	{r7}
     6e2:	af00      	add	r7, sp, #0
     6e4:	f44f 5380 	mov.w	r3, #4096	; 0x1000
     6e8:	f2c4 0302 	movt	r3, #16386	; 0x4002
     6ec:	f44f 5280 	mov.w	r2, #4096	; 0x1000
     6f0:	f2c4 0202 	movt	r2, #16386	; 0x4002
     6f4:	6812      	ldr	r2, [r2, #0]
     6f6:	f042 0201 	orr.w	r2, r2, #1
     6fa:	601a      	str	r2, [r3, #0]
     6fc:	f44f 5280 	mov.w	r2, #4096	; 0x1000
     700:	f2c4 0202 	movt	r2, #16386	; 0x4002
     704:	f44f 5380 	mov.w	r3, #4096	; 0x1000
     708:	f2c4 0302 	movt	r3, #16386	; 0x4002
     70c:	6859      	ldr	r1, [r3, #4]
     70e:	2300      	movs	r3, #0
     710:	f6cf 03ff 	movt	r3, #63743	; 0xf8ff
     714:	400b      	ands	r3, r1
     716:	6053      	str	r3, [r2, #4]
     718:	f44f 5380 	mov.w	r3, #4096	; 0x1000
     71c:	f2c4 0302 	movt	r3, #16386	; 0x4002
     720:	f44f 5280 	mov.w	r2, #4096	; 0x1000
     724:	f2c4 0202 	movt	r2, #16386	; 0x4002
     728:	6812      	ldr	r2, [r2, #0]
     72a:	f022 7284 	bic.w	r2, r2, #17301504	; 0x1080000
     72e:	f422 3280 	bic.w	r2, r2, #65536	; 0x10000
     732:	601a      	str	r2, [r3, #0]
     734:	f44f 5380 	mov.w	r3, #4096	; 0x1000
     738:	f2c4 0302 	movt	r3, #16386	; 0x4002
     73c:	f44f 5280 	mov.w	r2, #4096	; 0x1000
     740:	f2c4 0202 	movt	r2, #16386	; 0x4002
     744:	6812      	ldr	r2, [r2, #0]
     746:	f422 2280 	bic.w	r2, r2, #262144	; 0x40000
     74a:	601a      	str	r2, [r3, #0]
     74c:	f44f 5380 	mov.w	r3, #4096	; 0x1000
     750:	f2c4 0302 	movt	r3, #16386	; 0x4002
     754:	f44f 5280 	mov.w	r2, #4096	; 0x1000
     758:	f2c4 0202 	movt	r2, #16386	; 0x4002
     75c:	6852      	ldr	r2, [r2, #4]
     75e:	f422 02fe 	bic.w	r2, r2, #8323072	; 0x7f0000
     762:	605a      	str	r2, [r3, #4]
     764:	f44f 5380 	mov.w	r3, #4096	; 0x1000
     768:	f2c4 0302 	movt	r3, #16386	; 0x4002
     76c:	f44f 021f 	mov.w	r2, #10420224	; 0x9f0000
     770:	609a      	str	r2, [r3, #8]
     772:	46bd      	mov	sp, r7
     774:	f85d 7b04 	ldr.w	r7, [sp], #4
     778:	4770      	bx	lr
     77a:	bf00      	nop

0000077c <RCC_HSEConfig>:
     77c:	b480      	push	{r7}
     77e:	b083      	sub	sp, #12
     780:	af00      	add	r7, sp, #0
     782:	6078      	str	r0, [r7, #4]
     784:	f44f 5380 	mov.w	r3, #4096	; 0x1000
     788:	f2c4 0302 	movt	r3, #16386	; 0x4002
     78c:	f44f 5280 	mov.w	r2, #4096	; 0x1000
     790:	f2c4 0202 	movt	r2, #16386	; 0x4002
     794:	6812      	ldr	r2, [r2, #0]
     796:	f422 3280 	bic.w	r2, r2, #65536	; 0x10000
     79a:	601a      	str	r2, [r3, #0]
     79c:	f44f 5380 	mov.w	r3, #4096	; 0x1000
     7a0:	f2c4 0302 	movt	r3, #16386	; 0x4002
     7a4:	f44f 5280 	mov.w	r2, #4096	; 0x1000
     7a8:	f2c4 0202 	movt	r2, #16386	; 0x4002
     7ac:	6812      	ldr	r2, [r2, #0]
     7ae:	f422 2280 	bic.w	r2, r2, #262144	; 0x40000
     7b2:	601a      	str	r2, [r3, #0]
     7b4:	687b      	ldr	r3, [r7, #4]
     7b6:	f5b3 3f80 	cmp.w	r3, #65536	; 0x10000
     7ba:	d003      	beq.n	7c4 <RCC_HSEConfig+0x48>
     7bc:	f5b3 2f80 	cmp.w	r3, #262144	; 0x40000
     7c0:	d00d      	beq.n	7de <RCC_HSEConfig+0x62>
     7c2:	e019      	b.n	7f8 <RCC_HSEConfig+0x7c>
     7c4:	f44f 5380 	mov.w	r3, #4096	; 0x1000
     7c8:	f2c4 0302 	movt	r3, #16386	; 0x4002
     7cc:	f44f 5280 	mov.w	r2, #4096	; 0x1000
     7d0:	f2c4 0202 	movt	r2, #16386	; 0x4002
     7d4:	6812      	ldr	r2, [r2, #0]
     7d6:	f442 3280 	orr.w	r2, r2, #65536	; 0x10000
     7da:	601a      	str	r2, [r3, #0]
     7dc:	e00c      	b.n	7f8 <RCC_HSEConfig+0x7c>
     7de:	f44f 5380 	mov.w	r3, #4096	; 0x1000
     7e2:	f2c4 0302 	movt	r3, #16386	; 0x4002
     7e6:	f44f 5280 	mov.w	r2, #4096	; 0x1000
     7ea:	f2c4 0202 	movt	r2, #16386	; 0x4002
     7ee:	6812      	ldr	r2, [r2, #0]
     7f0:	f442 22a0 	orr.w	r2, r2, #327680	; 0x50000
     7f4:	601a      	str	r2, [r3, #0]
     7f6:	bf00      	nop
     7f8:	370c      	adds	r7, #12
     7fa:	46bd      	mov	sp, r7
     7fc:	f85d 7b04 	ldr.w	r7, [sp], #4
     800:	4770      	bx	lr
     802:	bf00      	nop

00000804 <RCC_WaitForHSEStartUp>:
     804:	b580      	push	{r7, lr}
     806:	b082      	sub	sp, #8
     808:	af00      	add	r7, sp, #0
     80a:	2300      	movs	r3, #0
     80c:	603b      	str	r3, [r7, #0]
     80e:	2300      	movs	r3, #0
     810:	71fb      	strb	r3, [r7, #7]
     812:	2300      	movs	r3, #0
     814:	71bb      	strb	r3, [r7, #6]
     816:	2031      	movs	r0, #49	; 0x31
     818:	f000 fba2 	bl	f60 <RCC_GetFlagStatus>
     81c:	4603      	mov	r3, r0
     81e:	71bb      	strb	r3, [r7, #6]
     820:	683b      	ldr	r3, [r7, #0]
     822:	3301      	adds	r3, #1
     824:	603b      	str	r3, [r7, #0]
     826:	683b      	ldr	r3, [r7, #0]
     828:	f5b3 6fa0 	cmp.w	r3, #1280	; 0x500
     82c:	d002      	beq.n	834 <RCC_WaitForHSEStartUp+0x30>
     82e:	79bb      	ldrb	r3, [r7, #6]
     830:	2b00      	cmp	r3, #0
     832:	d0f0      	beq.n	816 <RCC_WaitForHSEStartUp+0x12>
     834:	2031      	movs	r0, #49	; 0x31
     836:	f000 fb93 	bl	f60 <RCC_GetFlagStatus>
     83a:	4603      	mov	r3, r0
     83c:	2b00      	cmp	r3, #0
     83e:	d002      	beq.n	846 <RCC_WaitForHSEStartUp+0x42>
     840:	2301      	movs	r3, #1
     842:	71fb      	strb	r3, [r7, #7]
     844:	e001      	b.n	84a <RCC_WaitForHSEStartUp+0x46>
     846:	2300      	movs	r3, #0
     848:	71fb      	strb	r3, [r7, #7]
     84a:	79fb      	ldrb	r3, [r7, #7]
     84c:	4618      	mov	r0, r3
     84e:	3708      	adds	r7, #8
     850:	46bd      	mov	sp, r7
     852:	bd80      	pop	{r7, pc}

00000854 <RCC_AdjustHSICalibrationValue>:
     854:	b480      	push	{r7}
     856:	b085      	sub	sp, #20
     858:	af00      	add	r7, sp, #0
     85a:	4603      	mov	r3, r0
     85c:	71fb      	strb	r3, [r7, #7]
     85e:	2300      	movs	r3, #0
     860:	60fb      	str	r3, [r7, #12]
     862:	f44f 5380 	mov.w	r3, #4096	; 0x1000
     866:	f2c4 0302 	movt	r3, #16386	; 0x4002
     86a:	681b      	ldr	r3, [r3, #0]
     86c:	60fb      	str	r3, [r7, #12]
     86e:	68fb      	ldr	r3, [r7, #12]
     870:	f023 03f8 	bic.w	r3, r3, #248	; 0xf8
     874:	60fb      	str	r3, [r7, #12]
     876:	79fb      	ldrb	r3, [r7, #7]
     878:	00db      	lsls	r3, r3, #3
     87a:	68fa      	ldr	r2, [r7, #12]
     87c:	4313      	orrs	r3, r2
     87e:	60fb      	str	r3, [r7, #12]
     880:	f44f 5380 	mov.w	r3, #4096	; 0x1000
     884:	f2c4 0302 	movt	r3, #16386	; 0x4002
     888:	68fa      	ldr	r2, [r7, #12]
     88a:	601a      	str	r2, [r3, #0]
     88c:	3714      	adds	r7, #20
     88e:	46bd      	mov	sp, r7
     890:	f85d 7b04 	ldr.w	r7, [sp], #4
     894:	4770      	bx	lr
     896:	bf00      	nop

00000898 <RCC_HSICmd>:
     898:	b480      	push	{r7}
     89a:	b083      	sub	sp, #12
     89c:	af00      	add	r7, sp, #0
     89e:	4603      	mov	r3, r0
     8a0:	71fb      	strb	r3, [r7, #7]
     8a2:	2300      	movs	r3, #0
     8a4:	f2c4 2342 	movt	r3, #16962	; 0x4242
     8a8:	79fa      	ldrb	r2, [r7, #7]
     8aa:	601a      	str	r2, [r3, #0]
     8ac:	370c      	adds	r7, #12
     8ae:	46bd      	mov	sp, r7
     8b0:	f85d 7b04 	ldr.w	r7, [sp], #4
     8b4:	4770      	bx	lr
     8b6:	bf00      	nop

000008b8 <RCC_PLLConfig>:
     8b8:	b480      	push	{r7}
     8ba:	b085      	sub	sp, #20
     8bc:	af00      	add	r7, sp, #0
     8be:	6078      	str	r0, [r7, #4]
     8c0:	6039      	str	r1, [r7, #0]
     8c2:	2300      	movs	r3, #0
     8c4:	60fb      	str	r3, [r7, #12]
     8c6:	f44f 5380 	mov.w	r3, #4096	; 0x1000
     8ca:	f2c4 0302 	movt	r3, #16386	; 0x4002
     8ce:	685b      	ldr	r3, [r3, #4]
     8d0:	60fb      	str	r3, [r7, #12]
     8d2:	68fb      	ldr	r3, [r7, #12]
     8d4:	f423 137c 	bic.w	r3, r3, #4128768	; 0x3f0000
     8d8:	60fb      	str	r3, [r7, #12]
     8da:	687a      	ldr	r2, [r7, #4]
     8dc:	683b      	ldr	r3, [r7, #0]
     8de:	4313      	orrs	r3, r2
     8e0:	68fa      	ldr	r2, [r7, #12]
     8e2:	4313      	orrs	r3, r2
     8e4:	60fb      	str	r3, [r7, #12]
     8e6:	f44f 5380 	mov.w	r3, #4096	; 0x1000
     8ea:	f2c4 0302 	movt	r3, #16386	; 0x4002
     8ee:	68fa      	ldr	r2, [r7, #12]
     8f0:	605a      	str	r2, [r3, #4]
     8f2:	3714      	adds	r7, #20
     8f4:	46bd      	mov	sp, r7
     8f6:	f85d 7b04 	ldr.w	r7, [sp], #4
     8fa:	4770      	bx	lr

000008fc <RCC_PLLCmd>:
     8fc:	b480      	push	{r7}
     8fe:	b083      	sub	sp, #12
     900:	af00      	add	r7, sp, #0
     902:	4603      	mov	r3, r0
     904:	71fb      	strb	r3, [r7, #7]
     906:	2360      	movs	r3, #96	; 0x60
     908:	f2c4 2342 	movt	r3, #16962	; 0x4242
     90c:	79fa      	ldrb	r2, [r7, #7]
     90e:	601a      	str	r2, [r3, #0]
     910:	370c      	adds	r7, #12
     912:	46bd      	mov	sp, r7
     914:	f85d 7b04 	ldr.w	r7, [sp], #4
     918:	4770      	bx	lr
     91a:	bf00      	nop

0000091c <RCC_SYSCLKConfig>:
     91c:	b480      	push	{r7}
     91e:	b085      	sub	sp, #20
     920:	af00      	add	r7, sp, #0
     922:	6078      	str	r0, [r7, #4]
     924:	2300      	movs	r3, #0
     926:	60fb      	str	r3, [r7, #12]
     928:	f44f 5380 	mov.w	r3, #4096	; 0x1000
     92c:	f2c4 0302 	movt	r3, #16386	; 0x4002
     930:	685b      	ldr	r3, [r3, #4]
     932:	60fb      	str	r3, [r7, #12]
     934:	68fb      	ldr	r3, [r7, #12]
     936:	f023 0303 	bic.w	r3, r3, #3
     93a:	60fb      	str	r3, [r7, #12]
     93c:	68fa      	ldr	r2, [r7, #12]
     93e:	687b      	ldr	r3, [r7, #4]
     940:	4313      	orrs	r3, r2
     942:	60fb      	str	r3, [r7, #12]
     944:	f44f 5380 	mov.w	r3, #4096	; 0x1000
     948:	f2c4 0302 	movt	r3, #16386	; 0x4002
     94c:	68fa      	ldr	r2, [r7, #12]
     94e:	605a      	str	r2, [r3, #4]
     950:	3714      	adds	r7, #20
     952:	46bd      	mov	sp, r7
     954:	f85d 7b04 	ldr.w	r7, [sp], #4
     958:	4770      	bx	lr
     95a:	bf00      	nop

0000095c <RCC_GetSYSCLKSource>:
     95c:	b480      	push	{r7}
     95e:	af00      	add	r7, sp, #0
     960:	f44f 5380 	mov.w	r3, #4096	; 0x1000
     964:	f2c4 0302 	movt	r3, #16386	; 0x4002
     968:	685b      	ldr	r3, [r3, #4]
     96a:	b2db      	uxtb	r3, r3
     96c:	f003 030c 	and.w	r3, r3, #12
     970:	b2db      	uxtb	r3, r3
     972:	4618      	mov	r0, r3
     974:	46bd      	mov	sp, r7
     976:	f85d 7b04 	ldr.w	r7, [sp], #4
     97a:	4770      	bx	lr

0000097c <RCC_HCLKConfig>:
     97c:	b480      	push	{r7}
     97e:	b085      	sub	sp, #20
     980:	af00      	add	r7, sp, #0
     982:	6078      	str	r0, [r7, #4]
     984:	2300      	movs	r3, #0
     986:	60fb      	str	r3, [r7, #12]
     988:	f44f 5380 	mov.w	r3, #4096	; 0x1000
     98c:	f2c4 0302 	movt	r3, #16386	; 0x4002
     990:	685b      	ldr	r3, [r3, #4]
     992:	60fb      	str	r3, [r7, #12]
     994:	68fb      	ldr	r3, [r7, #12]
     996:	f023 03f0 	bic.w	r3, r3, #240	; 0xf0
     99a:	60fb      	str	r3, [r7, #12]
     99c:	68fa      	ldr	r2, [r7, #12]
     99e:	687b      	ldr	r3, [r7, #4]
     9a0:	4313      	orrs	r3, r2
     9a2:	60fb      	str	r3, [r7, #12]
     9a4:	f44f 5380 	mov.w	r3, #4096	; 0x1000
     9a8:	f2c4 0302 	movt	r3, #16386	; 0x4002
     9ac:	68fa      	ldr	r2, [r7, #12]
     9ae:	605a      	str	r2, [r3, #4]
     9b0:	3714      	adds	r7, #20
     9b2:	46bd      	mov	sp, r7
     9b4:	f85d 7b04 	ldr.w	r7, [sp], #4
     9b8:	4770      	bx	lr
     9ba:	bf00      	nop

000009bc <RCC_PCLK1Config>:
     9bc:	b480      	push	{r7}
     9be:	b085      	sub	sp, #20
     9c0:	af00      	add	r7, sp, #0
     9c2:	6078      	str	r0, [r7, #4]
     9c4:	2300      	movs	r3, #0
     9c6:	60fb      	str	r3, [r7, #12]
     9c8:	f44f 5380 	mov.w	r3, #4096	; 0x1000
     9cc:	f2c4 0302 	movt	r3, #16386	; 0x4002
     9d0:	685b      	ldr	r3, [r3, #4]
     9d2:	60fb      	str	r3, [r7, #12]
     9d4:	68fb      	ldr	r3, [r7, #12]
     9d6:	f423 63e0 	bic.w	r3, r3, #1792	; 0x700
     9da:	60fb      	str	r3, [r7, #12]
     9dc:	68fa      	ldr	r2, [r7, #12]
     9de:	687b      	ldr	r3, [r7, #4]
     9e0:	4313      	orrs	r3, r2
     9e2:	60fb      	str	r3, [r7, #12]
     9e4:	f44f 5380 	mov.w	r3, #4096	; 0x1000
     9e8:	f2c4 0302 	movt	r3, #16386	; 0x4002
     9ec:	68fa      	ldr	r2, [r7, #12]
     9ee:	605a      	str	r2, [r3, #4]
     9f0:	3714      	adds	r7, #20
     9f2:	46bd      	mov	sp, r7
     9f4:	f85d 7b04 	ldr.w	r7, [sp], #4
     9f8:	4770      	bx	lr
     9fa:	bf00      	nop

000009fc <RCC_PCLK2Config>:
     9fc:	b480      	push	{r7}
     9fe:	b085      	sub	sp, #20
     a00:	af00      	add	r7, sp, #0
     a02:	6078      	str	r0, [r7, #4]
     a04:	2300      	movs	r3, #0
     a06:	60fb      	str	r3, [r7, #12]
     a08:	f44f 5380 	mov.w	r3, #4096	; 0x1000
     a0c:	f2c4 0302 	movt	r3, #16386	; 0x4002
     a10:	685b      	ldr	r3, [r3, #4]
     a12:	60fb      	str	r3, [r7, #12]
     a14:	68fb      	ldr	r3, [r7, #12]
     a16:	f423 5360 	bic.w	r3, r3, #14336	; 0x3800
     a1a:	60fb      	str	r3, [r7, #12]
     a1c:	687b      	ldr	r3, [r7, #4]
     a1e:	00db      	lsls	r3, r3, #3
     a20:	68fa      	ldr	r2, [r7, #12]
     a22:	4313      	orrs	r3, r2
     a24:	60fb      	str	r3, [r7, #12]
     a26:	f44f 5380 	mov.w	r3, #4096	; 0x1000
     a2a:	f2c4 0302 	movt	r3, #16386	; 0x4002
     a2e:	68fa      	ldr	r2, [r7, #12]
     a30:	605a      	str	r2, [r3, #4]
     a32:	3714      	adds	r7, #20
     a34:	46bd      	mov	sp, r7
     a36:	f85d 7b04 	ldr.w	r7, [sp], #4
     a3a:	4770      	bx	lr

00000a3c <RCC_ITConfig>:
     a3c:	b480      	push	{r7}
     a3e:	b083      	sub	sp, #12
     a40:	af00      	add	r7, sp, #0
     a42:	4602      	mov	r2, r0
     a44:	460b      	mov	r3, r1
     a46:	71fa      	strb	r2, [r7, #7]
     a48:	71bb      	strb	r3, [r7, #6]
     a4a:	79bb      	ldrb	r3, [r7, #6]
     a4c:	2b00      	cmp	r3, #0
     a4e:	d00e      	beq.n	a6e <RCC_ITConfig+0x32>
     a50:	f241 0309 	movw	r3, #4105	; 0x1009
     a54:	f2c4 0302 	movt	r3, #16386	; 0x4002
     a58:	f241 0209 	movw	r2, #4105	; 0x1009
     a5c:	f2c4 0202 	movt	r2, #16386	; 0x4002
     a60:	7812      	ldrb	r2, [r2, #0]
     a62:	b2d1      	uxtb	r1, r2
     a64:	79fa      	ldrb	r2, [r7, #7]
     a66:	430a      	orrs	r2, r1
     a68:	b2d2      	uxtb	r2, r2
     a6a:	701a      	strb	r2, [r3, #0]
     a6c:	e00f      	b.n	a8e <RCC_ITConfig+0x52>
     a6e:	f241 0309 	movw	r3, #4105	; 0x1009
     a72:	f2c4 0302 	movt	r3, #16386	; 0x4002
     a76:	f241 0209 	movw	r2, #4105	; 0x1009
     a7a:	f2c4 0202 	movt	r2, #16386	; 0x4002
     a7e:	7812      	ldrb	r2, [r2, #0]
     a80:	b2d1      	uxtb	r1, r2
     a82:	79fa      	ldrb	r2, [r7, #7]
     a84:	43d2      	mvns	r2, r2
     a86:	b2d2      	uxtb	r2, r2
     a88:	400a      	ands	r2, r1
     a8a:	b2d2      	uxtb	r2, r2
     a8c:	701a      	strb	r2, [r3, #0]
     a8e:	370c      	adds	r7, #12
     a90:	46bd      	mov	sp, r7
     a92:	f85d 7b04 	ldr.w	r7, [sp], #4
     a96:	4770      	bx	lr

00000a98 <RCC_USBCLKConfig>:
     a98:	b480      	push	{r7}
     a9a:	b083      	sub	sp, #12
     a9c:	af00      	add	r7, sp, #0
     a9e:	6078      	str	r0, [r7, #4]
     aa0:	23d8      	movs	r3, #216	; 0xd8
     aa2:	f2c4 2342 	movt	r3, #16962	; 0x4242
     aa6:	687a      	ldr	r2, [r7, #4]
     aa8:	601a      	str	r2, [r3, #0]
     aaa:	370c      	adds	r7, #12
     aac:	46bd      	mov	sp, r7
     aae:	f85d 7b04 	ldr.w	r7, [sp], #4
     ab2:	4770      	bx	lr

00000ab4 <RCC_ADCCLKConfig>:
     ab4:	b480      	push	{r7}
     ab6:	b085      	sub	sp, #20
     ab8:	af00      	add	r7, sp, #0
     aba:	6078      	str	r0, [r7, #4]
     abc:	2300      	movs	r3, #0
     abe:	60fb      	str	r3, [r7, #12]
     ac0:	f44f 5380 	mov.w	r3, #4096	; 0x1000
     ac4:	f2c4 0302 	movt	r3, #16386	; 0x4002
     ac8:	685b      	ldr	r3, [r3, #4]
     aca:	60fb      	str	r3, [r7, #12]
     acc:	68fb      	ldr	r3, [r7, #12]
     ace:	f423 4340 	bic.w	r3, r3, #49152	; 0xc000
     ad2:	60fb      	str	r3, [r7, #12]
     ad4:	68fa      	ldr	r2, [r7, #12]
     ad6:	687b      	ldr	r3, [r7, #4]
     ad8:	4313      	orrs	r3, r2
     ada:	60fb      	str	r3, [r7, #12]
     adc:	f44f 5380 	mov.w	r3, #4096	; 0x1000
     ae0:	f2c4 0302 	movt	r3, #16386	; 0x4002
     ae4:	68fa      	ldr	r2, [r7, #12]
     ae6:	605a      	str	r2, [r3, #4]
     ae8:	3714      	adds	r7, #20
     aea:	46bd      	mov	sp, r7
     aec:	f85d 7b04 	ldr.w	r7, [sp], #4
     af0:	4770      	bx	lr
     af2:	bf00      	nop

00000af4 <RCC_LSEConfig>:
     af4:	b480      	push	{r7}
     af6:	b083      	sub	sp, #12
     af8:	af00      	add	r7, sp, #0
     afa:	4603      	mov	r3, r0
     afc:	71fb      	strb	r3, [r7, #7]
     afe:	f44f 5381 	mov.w	r3, #4128	; 0x1020
     b02:	f2c4 0302 	movt	r3, #16386	; 0x4002
     b06:	2200      	movs	r2, #0
     b08:	701a      	strb	r2, [r3, #0]
     b0a:	f44f 5381 	mov.w	r3, #4128	; 0x1020
     b0e:	f2c4 0302 	movt	r3, #16386	; 0x4002
     b12:	2200      	movs	r2, #0
     b14:	701a      	strb	r2, [r3, #0]
     b16:	79fb      	ldrb	r3, [r7, #7]
     b18:	2b01      	cmp	r3, #1
     b1a:	d002      	beq.n	b22 <RCC_LSEConfig+0x2e>
     b1c:	2b04      	cmp	r3, #4
     b1e:	d007      	beq.n	b30 <RCC_LSEConfig+0x3c>
     b20:	e00d      	b.n	b3e <RCC_LSEConfig+0x4a>
     b22:	f44f 5381 	mov.w	r3, #4128	; 0x1020
     b26:	f2c4 0302 	movt	r3, #16386	; 0x4002
     b2a:	2201      	movs	r2, #1
     b2c:	701a      	strb	r2, [r3, #0]
     b2e:	e006      	b.n	b3e <RCC_LSEConfig+0x4a>
     b30:	f44f 5381 	mov.w	r3, #4128	; 0x1020
     b34:	f2c4 0302 	movt	r3, #16386	; 0x4002
     b38:	2205      	movs	r2, #5
     b3a:	701a      	strb	r2, [r3, #0]
     b3c:	bf00      	nop
     b3e:	370c      	adds	r7, #12
     b40:	46bd      	mov	sp, r7
     b42:	f85d 7b04 	ldr.w	r7, [sp], #4
     b46:	4770      	bx	lr

00000b48 <RCC_LSICmd>:
     b48:	b480      	push	{r7}
     b4a:	b083      	sub	sp, #12
     b4c:	af00      	add	r7, sp, #0
     b4e:	4603      	mov	r3, r0
     b50:	71fb      	strb	r3, [r7, #7]
     b52:	f44f 6390 	mov.w	r3, #1152	; 0x480
     b56:	f2c4 2342 	movt	r3, #16962	; 0x4242
     b5a:	79fa      	ldrb	r2, [r7, #7]
     b5c:	601a      	str	r2, [r3, #0]
     b5e:	370c      	adds	r7, #12
     b60:	46bd      	mov	sp, r7
     b62:	f85d 7b04 	ldr.w	r7, [sp], #4
     b66:	4770      	bx	lr

00000b68 <RCC_RTCCLKConfig>:
     b68:	b480      	push	{r7}
     b6a:	b083      	sub	sp, #12
     b6c:	af00      	add	r7, sp, #0
     b6e:	6078      	str	r0, [r7, #4]
     b70:	f44f 5380 	mov.w	r3, #4096	; 0x1000
     b74:	f2c4 0302 	movt	r3, #16386	; 0x4002
     b78:	f44f 5280 	mov.w	r2, #4096	; 0x1000
     b7c:	f2c4 0202 	movt	r2, #16386	; 0x4002
     b80:	6a11      	ldr	r1, [r2, #32]
     b82:	687a      	ldr	r2, [r7, #4]
     b84:	430a      	orrs	r2, r1
     b86:	621a      	str	r2, [r3, #32]
     b88:	370c      	adds	r7, #12
     b8a:	46bd      	mov	sp, r7
     b8c:	f85d 7b04 	ldr.w	r7, [sp], #4
     b90:	4770      	bx	lr
     b92:	bf00      	nop

00000b94 <RCC_RTCCLKCmd>:
     b94:	b480      	push	{r7}
     b96:	b083      	sub	sp, #12
     b98:	af00      	add	r7, sp, #0
     b9a:	4603      	mov	r3, r0
     b9c:	71fb      	strb	r3, [r7, #7]
     b9e:	f240 433c 	movw	r3, #1084	; 0x43c
     ba2:	f2c4 2342 	movt	r3, #16962	; 0x4242
     ba6:	79fa      	ldrb	r2, [r7, #7]
     ba8:	601a      	str	r2, [r3, #0]
     baa:	370c      	adds	r7, #12
     bac:	46bd      	mov	sp, r7
     bae:	f85d 7b04 	ldr.w	r7, [sp], #4
     bb2:	4770      	bx	lr

00000bb4 <RCC_GetClocksFreq>:
     bb4:	b480      	push	{r7}
     bb6:	b087      	sub	sp, #28
     bb8:	af00      	add	r7, sp, #0
     bba:	6078      	str	r0, [r7, #4]
     bbc:	2300      	movs	r3, #0
     bbe:	617b      	str	r3, [r7, #20]
     bc0:	2300      	movs	r3, #0
     bc2:	613b      	str	r3, [r7, #16]
     bc4:	2300      	movs	r3, #0
     bc6:	60fb      	str	r3, [r7, #12]
     bc8:	2300      	movs	r3, #0
     bca:	60bb      	str	r3, [r7, #8]
     bcc:	f44f 5380 	mov.w	r3, #4096	; 0x1000
     bd0:	f2c4 0302 	movt	r3, #16386	; 0x4002
     bd4:	685b      	ldr	r3, [r3, #4]
     bd6:	f003 030c 	and.w	r3, r3, #12
     bda:	617b      	str	r3, [r7, #20]
     bdc:	697b      	ldr	r3, [r7, #20]
     bde:	2b04      	cmp	r3, #4
     be0:	d00a      	beq.n	bf8 <RCC_GetClocksFreq+0x44>
     be2:	2b08      	cmp	r3, #8
     be4:	d00f      	beq.n	c06 <RCC_GetClocksFreq+0x52>
     be6:	2b00      	cmp	r3, #0
     be8:	d14c      	bne.n	c84 <RCC_GetClocksFreq+0xd0>
     bea:	687a      	ldr	r2, [r7, #4]
     bec:	f44f 5390 	mov.w	r3, #4608	; 0x1200
     bf0:	f2c0 037a 	movt	r3, #122	; 0x7a
     bf4:	6013      	str	r3, [r2, #0]
     bf6:	e04c      	b.n	c92 <RCC_GetClocksFreq+0xde>
     bf8:	687a      	ldr	r2, [r7, #4]
     bfa:	f44f 5390 	mov.w	r3, #4608	; 0x1200
     bfe:	f2c0 037a 	movt	r3, #122	; 0x7a
     c02:	6013      	str	r3, [r2, #0]
     c04:	e045      	b.n	c92 <RCC_GetClocksFreq+0xde>
     c06:	f44f 5380 	mov.w	r3, #4096	; 0x1000
     c0a:	f2c4 0302 	movt	r3, #16386	; 0x4002
     c0e:	685b      	ldr	r3, [r3, #4]
     c10:	f403 1370 	and.w	r3, r3, #3932160	; 0x3c0000
     c14:	613b      	str	r3, [r7, #16]
     c16:	f44f 5380 	mov.w	r3, #4096	; 0x1000
     c1a:	f2c4 0302 	movt	r3, #16386	; 0x4002
     c1e:	685b      	ldr	r3, [r3, #4]
     c20:	f403 3380 	and.w	r3, r3, #65536	; 0x10000
     c24:	60fb      	str	r3, [r7, #12]
     c26:	693b      	ldr	r3, [r7, #16]
     c28:	0c9b      	lsrs	r3, r3, #18
     c2a:	3302      	adds	r3, #2
     c2c:	613b      	str	r3, [r7, #16]
     c2e:	68fb      	ldr	r3, [r7, #12]
     c30:	2b00      	cmp	r3, #0
     c32:	d109      	bne.n	c48 <RCC_GetClocksFreq+0x94>
     c34:	693a      	ldr	r2, [r7, #16]
     c36:	f44f 6310 	mov.w	r3, #2304	; 0x900
     c3a:	f2c0 033d 	movt	r3, #61	; 0x3d
     c3e:	fb03 f202 	mul.w	r2, r3, r2
     c42:	687b      	ldr	r3, [r7, #4]
     c44:	601a      	str	r2, [r3, #0]
     c46:	e01c      	b.n	c82 <RCC_GetClocksFreq+0xce>
     c48:	f44f 5380 	mov.w	r3, #4096	; 0x1000
     c4c:	f2c4 0302 	movt	r3, #16386	; 0x4002
     c50:	685b      	ldr	r3, [r3, #4]
     c52:	f403 3300 	and.w	r3, r3, #131072	; 0x20000
     c56:	2b00      	cmp	r3, #0
     c58:	d009      	beq.n	c6e <RCC_GetClocksFreq+0xba>
     c5a:	693a      	ldr	r2, [r7, #16]
     c5c:	f44f 6310 	mov.w	r3, #2304	; 0x900
     c60:	f2c0 033d 	movt	r3, #61	; 0x3d
     c64:	fb03 f202 	mul.w	r2, r3, r2
     c68:	687b      	ldr	r3, [r7, #4]
     c6a:	601a      	str	r2, [r3, #0]
     c6c:	e009      	b.n	c82 <RCC_GetClocksFreq+0xce>
     c6e:	693a      	ldr	r2, [r7, #16]
     c70:	f44f 5390 	mov.w	r3, #4608	; 0x1200
     c74:	f2c0 037a 	movt	r3, #122	; 0x7a
     c78:	fb03 f202 	mul.w	r2, r3, r2
     c7c:	687b      	ldr	r3, [r7, #4]
     c7e:	601a      	str	r2, [r3, #0]
     c80:	e007      	b.n	c92 <RCC_GetClocksFreq+0xde>
     c82:	e006      	b.n	c92 <RCC_GetClocksFreq+0xde>
     c84:	687a      	ldr	r2, [r7, #4]
     c86:	f44f 5390 	mov.w	r3, #4608	; 0x1200
     c8a:	f2c0 037a 	movt	r3, #122	; 0x7a
     c8e:	6013      	str	r3, [r2, #0]
     c90:	bf00      	nop
     c92:	f44f 5380 	mov.w	r3, #4096	; 0x1000
     c96:	f2c4 0302 	movt	r3, #16386	; 0x4002
     c9a:	685b      	ldr	r3, [r3, #4]
     c9c:	f003 03f0 	and.w	r3, r3, #240	; 0xf0
     ca0:	617b      	str	r3, [r7, #20]
     ca2:	697b      	ldr	r3, [r7, #20]
     ca4:	091b      	lsrs	r3, r3, #4
     ca6:	617b      	str	r3, [r7, #20]
     ca8:	f240 0314 	movw	r3, #20
     cac:	f2c2 0300 	movt	r3, #8192	; 0x2000
     cb0:	697a      	ldr	r2, [r7, #20]
     cb2:	4413      	add	r3, r2
     cb4:	781b      	ldrb	r3, [r3, #0]
     cb6:	b2db      	uxtb	r3, r3
     cb8:	60bb      	str	r3, [r7, #8]
     cba:	687b      	ldr	r3, [r7, #4]
     cbc:	681a      	ldr	r2, [r3, #0]
     cbe:	68bb      	ldr	r3, [r7, #8]
     cc0:	40da      	lsrs	r2, r3
     cc2:	687b      	ldr	r3, [r7, #4]
     cc4:	605a      	str	r2, [r3, #4]
     cc6:	f44f 5380 	mov.w	r3, #4096	; 0x1000
     cca:	f2c4 0302 	movt	r3, #16386	; 0x4002
     cce:	685b      	ldr	r3, [r3, #4]
     cd0:	f403 63e0 	and.w	r3, r3, #1792	; 0x700
     cd4:	617b      	str	r3, [r7, #20]
     cd6:	697b      	ldr	r3, [r7, #20]
     cd8:	0a1b      	lsrs	r3, r3, #8
     cda:	617b      	str	r3, [r7, #20]
     cdc:	f240 0314 	movw	r3, #20
     ce0:	f2c2 0300 	movt	r3, #8192	; 0x2000
     ce4:	697a      	ldr	r2, [r7, #20]
     ce6:	4413      	add	r3, r2
     ce8:	781b      	ldrb	r3, [r3, #0]
     cea:	b2db      	uxtb	r3, r3
     cec:	60bb      	str	r3, [r7, #8]
     cee:	687b      	ldr	r3, [r7, #4]
     cf0:	685a      	ldr	r2, [r3, #4]
     cf2:	68bb      	ldr	r3, [r7, #8]
     cf4:	40da      	lsrs	r2, r3
     cf6:	687b      	ldr	r3, [r7, #4]
     cf8:	609a      	str	r2, [r3, #8]
     cfa:	f44f 5380 	mov.w	r3, #4096	; 0x1000
     cfe:	f2c4 0302 	movt	r3, #16386	; 0x4002
     d02:	685b      	ldr	r3, [r3, #4]
     d04:	f403 5360 	and.w	r3, r3, #14336	; 0x3800
     d08:	617b      	str	r3, [r7, #20]
     d0a:	697b      	ldr	r3, [r7, #20]
     d0c:	0adb      	lsrs	r3, r3, #11
     d0e:	617b      	str	r3, [r7, #20]
     d10:	f240 0314 	movw	r3, #20
     d14:	f2c2 0300 	movt	r3, #8192	; 0x2000
     d18:	697a      	ldr	r2, [r7, #20]
     d1a:	4413      	add	r3, r2
     d1c:	781b      	ldrb	r3, [r3, #0]
     d1e:	b2db      	uxtb	r3, r3
     d20:	60bb      	str	r3, [r7, #8]
     d22:	687b      	ldr	r3, [r7, #4]
     d24:	685a      	ldr	r2, [r3, #4]
     d26:	68bb      	ldr	r3, [r7, #8]
     d28:	40da      	lsrs	r2, r3
     d2a:	687b      	ldr	r3, [r7, #4]
     d2c:	60da      	str	r2, [r3, #12]
     d2e:	f44f 5380 	mov.w	r3, #4096	; 0x1000
     d32:	f2c4 0302 	movt	r3, #16386	; 0x4002
     d36:	685b      	ldr	r3, [r3, #4]
     d38:	f403 4340 	and.w	r3, r3, #49152	; 0xc000
     d3c:	617b      	str	r3, [r7, #20]
     d3e:	697b      	ldr	r3, [r7, #20]
     d40:	0b9b      	lsrs	r3, r3, #14
     d42:	617b      	str	r3, [r7, #20]
     d44:	f240 0324 	movw	r3, #36	; 0x24
     d48:	f2c2 0300 	movt	r3, #8192	; 0x2000
     d4c:	697a      	ldr	r2, [r7, #20]
     d4e:	4413      	add	r3, r2
     d50:	781b      	ldrb	r3, [r3, #0]
     d52:	b2db      	uxtb	r3, r3
     d54:	60bb      	str	r3, [r7, #8]
     d56:	687b      	ldr	r3, [r7, #4]
     d58:	68da      	ldr	r2, [r3, #12]
     d5a:	68bb      	ldr	r3, [r7, #8]
     d5c:	fbb2 f2f3 	udiv	r2, r2, r3
     d60:	687b      	ldr	r3, [r7, #4]
     d62:	611a      	str	r2, [r3, #16]
     d64:	371c      	adds	r7, #28
     d66:	46bd      	mov	sp, r7
     d68:	f85d 7b04 	ldr.w	r7, [sp], #4
     d6c:	4770      	bx	lr
     d6e:	bf00      	nop

00000d70 <RCC_AHBPeriphClockCmd>:
     d70:	b480      	push	{r7}
     d72:	b083      	sub	sp, #12
     d74:	af00      	add	r7, sp, #0
     d76:	6078      	str	r0, [r7, #4]
     d78:	460b      	mov	r3, r1
     d7a:	70fb      	strb	r3, [r7, #3]
     d7c:	78fb      	ldrb	r3, [r7, #3]
     d7e:	2b00      	cmp	r3, #0
     d80:	d00c      	beq.n	d9c <RCC_AHBPeriphClockCmd+0x2c>
     d82:	f44f 5380 	mov.w	r3, #4096	; 0x1000
     d86:	f2c4 0302 	movt	r3, #16386	; 0x4002
     d8a:	f44f 5280 	mov.w	r2, #4096	; 0x1000
     d8e:	f2c4 0202 	movt	r2, #16386	; 0x4002
     d92:	6951      	ldr	r1, [r2, #20]
     d94:	687a      	ldr	r2, [r7, #4]
     d96:	430a      	orrs	r2, r1
     d98:	615a      	str	r2, [r3, #20]
     d9a:	e00c      	b.n	db6 <RCC_AHBPeriphClockCmd+0x46>
     d9c:	f44f 5380 	mov.w	r3, #4096	; 0x1000
     da0:	f2c4 0302 	movt	r3, #16386	; 0x4002
     da4:	f44f 5280 	mov.w	r2, #4096	; 0x1000
     da8:	f2c4 0202 	movt	r2, #16386	; 0x4002
     dac:	6951      	ldr	r1, [r2, #20]
     dae:	687a      	ldr	r2, [r7, #4]
     db0:	43d2      	mvns	r2, r2
     db2:	400a      	ands	r2, r1
     db4:	615a      	str	r2, [r3, #20]
     db6:	370c      	adds	r7, #12
     db8:	46bd      	mov	sp, r7
     dba:	f85d 7b04 	ldr.w	r7, [sp], #4
     dbe:	4770      	bx	lr

00000dc0 <RCC_APB2PeriphClockCmd>:
     dc0:	b480      	push	{r7}
     dc2:	b083      	sub	sp, #12
     dc4:	af00      	add	r7, sp, #0
     dc6:	6078      	str	r0, [r7, #4]
     dc8:	460b      	mov	r3, r1
     dca:	70fb      	strb	r3, [r7, #3]
     dcc:	78fb      	ldrb	r3, [r7, #3]
     dce:	2b00      	cmp	r3, #0
     dd0:	d00c      	beq.n	dec <RCC_APB2PeriphClockCmd+0x2c>
     dd2:	f44f 5380 	mov.w	r3, #4096	; 0x1000
     dd6:	f2c4 0302 	movt	r3, #16386	; 0x4002
     dda:	f44f 5280 	mov.w	r2, #4096	; 0x1000
     dde:	f2c4 0202 	movt	r2, #16386	; 0x4002
     de2:	6991      	ldr	r1, [r2, #24]
     de4:	687a      	ldr	r2, [r7, #4]
     de6:	430a      	orrs	r2, r1
     de8:	619a      	str	r2, [r3, #24]
     dea:	e00c      	b.n	e06 <RCC_APB2PeriphClockCmd+0x46>
     dec:	f44f 5380 	mov.w	r3, #4096	; 0x1000
     df0:	f2c4 0302 	movt	r3, #16386	; 0x4002
     df4:	f44f 5280 	mov.w	r2, #4096	; 0x1000
     df8:	f2c4 0202 	movt	r2, #16386	; 0x4002
     dfc:	6991      	ldr	r1, [r2, #24]
     dfe:	687a      	ldr	r2, [r7, #4]
     e00:	43d2      	mvns	r2, r2
     e02:	400a      	ands	r2, r1
     e04:	619a      	str	r2, [r3, #24]
     e06:	370c      	adds	r7, #12
     e08:	46bd      	mov	sp, r7
     e0a:	f85d 7b04 	ldr.w	r7, [sp], #4
     e0e:	4770      	bx	lr

00000e10 <RCC_APB1PeriphClockCmd>:
     e10:	b480      	push	{r7}
     e12:	b083      	sub	sp, #12
     e14:	af00      	add	r7, sp, #0
     e16:	6078      	str	r0, [r7, #4]
     e18:	460b      	mov	r3, r1
     e1a:	70fb      	strb	r3, [r7, #3]
     e1c:	78fb      	ldrb	r3, [r7, #3]
     e1e:	2b00      	cmp	r3, #0
     e20:	d00c      	beq.n	e3c <RCC_APB1PeriphClockCmd+0x2c>
     e22:	f44f 5380 	mov.w	r3, #4096	; 0x1000
     e26:	f2c4 0302 	movt	r3, #16386	; 0x4002
     e2a:	f44f 5280 	mov.w	r2, #4096	; 0x1000
     e2e:	f2c4 0202 	movt	r2, #16386	; 0x4002
     e32:	69d1      	ldr	r1, [r2, #28]
     e34:	687a      	ldr	r2, [r7, #4]
     e36:	430a      	orrs	r2, r1
     e38:	61da      	str	r2, [r3, #28]
     e3a:	e00c      	b.n	e56 <RCC_APB1PeriphClockCmd+0x46>
     e3c:	f44f 5380 	mov.w	r3, #4096	; 0x1000
     e40:	f2c4 0302 	movt	r3, #16386	; 0x4002
     e44:	f44f 5280 	mov.w	r2, #4096	; 0x1000
     e48:	f2c4 0202 	movt	r2, #16386	; 0x4002
     e4c:	69d1      	ldr	r1, [r2, #28]
     e4e:	687a      	ldr	r2, [r7, #4]
     e50:	43d2      	mvns	r2, r2
     e52:	400a      	ands	r2, r1
     e54:	61da      	str	r2, [r3, #28]
     e56:	370c      	adds	r7, #12
     e58:	46bd      	mov	sp, r7
     e5a:	f85d 7b04 	ldr.w	r7, [sp], #4
     e5e:	4770      	bx	lr

00000e60 <RCC_APB2PeriphResetCmd>:
     e60:	b480      	push	{r7}
     e62:	b083      	sub	sp, #12
     e64:	af00      	add	r7, sp, #0
     e66:	6078      	str	r0, [r7, #4]
     e68:	460b      	mov	r3, r1
     e6a:	70fb      	strb	r3, [r7, #3]
     e6c:	78fb      	ldrb	r3, [r7, #3]
     e6e:	2b00      	cmp	r3, #0
     e70:	d00c      	beq.n	e8c <RCC_APB2PeriphResetCmd+0x2c>
     e72:	f44f 5380 	mov.w	r3, #4096	; 0x1000
     e76:	f2c4 0302 	movt	r3, #16386	; 0x4002
     e7a:	f44f 5280 	mov.w	r2, #4096	; 0x1000
     e7e:	f2c4 0202 	movt	r2, #16386	; 0x4002
     e82:	68d1      	ldr	r1, [r2, #12]
     e84:	687a      	ldr	r2, [r7, #4]
     e86:	430a      	orrs	r2, r1
     e88:	60da      	str	r2, [r3, #12]
     e8a:	e00c      	b.n	ea6 <RCC_APB2PeriphResetCmd+0x46>
     e8c:	f44f 5380 	mov.w	r3, #4096	; 0x1000
     e90:	f2c4 0302 	movt	r3, #16386	; 0x4002
     e94:	f44f 5280 	mov.w	r2, #4096	; 0x1000
     e98:	f2c4 0202 	movt	r2, #16386	; 0x4002
     e9c:	68d1      	ldr	r1, [r2, #12]
     e9e:	687a      	ldr	r2, [r7, #4]
     ea0:	43d2      	mvns	r2, r2
     ea2:	400a      	ands	r2, r1
     ea4:	60da      	str	r2, [r3, #12]
     ea6:	370c      	adds	r7, #12
     ea8:	46bd      	mov	sp, r7
     eaa:	f85d 7b04 	ldr.w	r7, [sp], #4
     eae:	4770      	bx	lr

00000eb0 <RCC_APB1PeriphResetCmd>:
     eb0:	b480      	push	{r7}
     eb2:	b083      	sub	sp, #12
     eb4:	af00      	add	r7, sp, #0
     eb6:	6078      	str	r0, [r7, #4]
     eb8:	460b      	mov	r3, r1
     eba:	70fb      	strb	r3, [r7, #3]
     ebc:	78fb      	ldrb	r3, [r7, #3]
     ebe:	2b00      	cmp	r3, #0
     ec0:	d00c      	beq.n	edc <RCC_APB1PeriphResetCmd+0x2c>
     ec2:	f44f 5380 	mov.w	r3, #4096	; 0x1000
     ec6:	f2c4 0302 	movt	r3, #16386	; 0x4002
     eca:	f44f 5280 	mov.w	r2, #4096	; 0x1000
     ece:	f2c4 0202 	movt	r2, #16386	; 0x4002
     ed2:	6911      	ldr	r1, [r2, #16]
     ed4:	687a      	ldr	r2, [r7, #4]
     ed6:	430a      	orrs	r2, r1
     ed8:	611a      	str	r2, [r3, #16]
     eda:	e00c      	b.n	ef6 <RCC_APB1PeriphResetCmd+0x46>
     edc:	f44f 5380 	mov.w	r3, #4096	; 0x1000
     ee0:	f2c4 0302 	movt	r3, #16386	; 0x4002
     ee4:	f44f 5280 	mov.w	r2, #4096	; 0x1000
     ee8:	f2c4 0202 	movt	r2, #16386	; 0x4002
     eec:	6911      	ldr	r1, [r2, #16]
     eee:	687a      	ldr	r2, [r7, #4]
     ef0:	43d2      	mvns	r2, r2
     ef2:	400a      	ands	r2, r1
     ef4:	611a      	str	r2, [r3, #16]
     ef6:	370c      	adds	r7, #12
     ef8:	46bd      	mov	sp, r7
     efa:	f85d 7b04 	ldr.w	r7, [sp], #4
     efe:	4770      	bx	lr

00000f00 <RCC_BackupResetCmd>:
     f00:	b480      	push	{r7}
     f02:	b083      	sub	sp, #12
     f04:	af00      	add	r7, sp, #0
     f06:	4603      	mov	r3, r0
     f08:	71fb      	strb	r3, [r7, #7]
     f0a:	f44f 6388 	mov.w	r3, #1088	; 0x440
     f0e:	f2c4 2342 	movt	r3, #16962	; 0x4242
     f12:	79fa      	ldrb	r2, [r7, #7]
     f14:	601a      	str	r2, [r3, #0]
     f16:	370c      	adds	r7, #12
     f18:	46bd      	mov	sp, r7
     f1a:	f85d 7b04 	ldr.w	r7, [sp], #4
     f1e:	4770      	bx	lr

00000f20 <RCC_ClockSecuritySystemCmd>:
     f20:	b480      	push	{r7}
     f22:	b083      	sub	sp, #12
     f24:	af00      	add	r7, sp, #0
     f26:	4603      	mov	r3, r0
     f28:	71fb      	strb	r3, [r7, #7]
     f2a:	234c      	movs	r3, #76	; 0x4c
     f2c:	f2c4 2342 	movt	r3, #16962	; 0x4242
     f30:	79fa      	ldrb	r2, [r7, #7]
     f32:	601a      	str	r2, [r3, #0]
     f34:	370c      	adds	r7, #12
     f36:	46bd      	mov	sp, r7
     f38:	f85d 7b04 	ldr.w	r7, [sp], #4
     f3c:	4770      	bx	lr
     f3e:	bf00      	nop

00000f40 <RCC_MCOConfig>:
     f40:	b480      	push	{r7}
     f42:	b083      	sub	sp, #12
     f44:	af00      	add	r7, sp, #0
     f46:	4603      	mov	r3, r0
     f48:	71fb      	strb	r3, [r7, #7]
     f4a:	f241 0307 	movw	r3, #4103	; 0x1007
     f4e:	f2c4 0302 	movt	r3, #16386	; 0x4002
     f52:	79fa      	ldrb	r2, [r7, #7]
     f54:	701a      	strb	r2, [r3, #0]
     f56:	370c      	adds	r7, #12
     f58:	46bd      	mov	sp, r7
     f5a:	f85d 7b04 	ldr.w	r7, [sp], #4
     f5e:	4770      	bx	lr

00000f60 <RCC_GetFlagStatus>:
     f60:	b480      	push	{r7}
     f62:	b087      	sub	sp, #28
     f64:	af00      	add	r7, sp, #0
     f66:	4603      	mov	r3, r0
     f68:	71fb      	strb	r3, [r7, #7]
     f6a:	2300      	movs	r3, #0
     f6c:	60fb      	str	r3, [r7, #12]
     f6e:	2300      	movs	r3, #0
     f70:	617b      	str	r3, [r7, #20]
     f72:	2300      	movs	r3, #0
     f74:	74fb      	strb	r3, [r7, #19]
     f76:	79fb      	ldrb	r3, [r7, #7]
     f78:	095b      	lsrs	r3, r3, #5
     f7a:	b2db      	uxtb	r3, r3
     f7c:	60fb      	str	r3, [r7, #12]
     f7e:	68fb      	ldr	r3, [r7, #12]
     f80:	2b01      	cmp	r3, #1
     f82:	d106      	bne.n	f92 <RCC_GetFlagStatus+0x32>
     f84:	f44f 5380 	mov.w	r3, #4096	; 0x1000
     f88:	f2c4 0302 	movt	r3, #16386	; 0x4002
     f8c:	681b      	ldr	r3, [r3, #0]
     f8e:	617b      	str	r3, [r7, #20]
     f90:	e00f      	b.n	fb2 <RCC_GetFlagStatus+0x52>
     f92:	68fb      	ldr	r3, [r7, #12]
     f94:	2b02      	cmp	r3, #2
     f96:	d106      	bne.n	fa6 <RCC_GetFlagStatus+0x46>
     f98:	f44f 5380 	mov.w	r3, #4096	; 0x1000
     f9c:	f2c4 0302 	movt	r3, #16386	; 0x4002
     fa0:	6a1b      	ldr	r3, [r3, #32]
     fa2:	617b      	str	r3, [r7, #20]
     fa4:	e005      	b.n	fb2 <RCC_GetFlagStatus+0x52>
     fa6:	f44f 5380 	mov.w	r3, #4096	; 0x1000
     faa:	f2c4 0302 	movt	r3, #16386	; 0x4002
     fae:	6a5b      	ldr	r3, [r3, #36]	; 0x24
     fb0:	617b      	str	r3, [r7, #20]
     fb2:	79fb      	ldrb	r3, [r7, #7]
     fb4:	f003 031f 	and.w	r3, r3, #31
     fb8:	60fb      	str	r3, [r7, #12]
     fba:	68fb      	ldr	r3, [r7, #12]
     fbc:	697a      	ldr	r2, [r7, #20]
     fbe:	fa22 f303 	lsr.w	r3, r2, r3
     fc2:	f003 0301 	and.w	r3, r3, #1
     fc6:	2b00      	cmp	r3, #0
     fc8:	d002      	beq.n	fd0 <RCC_GetFlagStatus+0x70>
     fca:	2301      	movs	r3, #1
     fcc:	74fb      	strb	r3, [r7, #19]
     fce:	e001      	b.n	fd4 <RCC_GetFlagStatus+0x74>
     fd0:	2300      	movs	r3, #0
     fd2:	74fb      	strb	r3, [r7, #19]
     fd4:	7cfb      	ldrb	r3, [r7, #19]
     fd6:	4618      	mov	r0, r3
     fd8:	371c      	adds	r7, #28
     fda:	46bd      	mov	sp, r7
     fdc:	f85d 7b04 	ldr.w	r7, [sp], #4
     fe0:	4770      	bx	lr
     fe2:	bf00      	nop

00000fe4 <RCC_ClearFlag>:
     fe4:	b480      	push	{r7}
     fe6:	af00      	add	r7, sp, #0
     fe8:	f44f 5380 	mov.w	r3, #4096	; 0x1000
     fec:	f2c4 0302 	movt	r3, #16386	; 0x4002
     ff0:	f44f 5280 	mov.w	r2, #4096	; 0x1000
     ff4:	f2c4 0202 	movt	r2, #16386	; 0x4002
     ff8:	6a52      	ldr	r2, [r2, #36]	; 0x24
     ffa:	f042 7280 	orr.w	r2, r2, #16777216	; 0x1000000
     ffe:	625a      	str	r2, [r3, #36]	; 0x24
    1000:	46bd      	mov	sp, r7
    1002:	f85d 7b04 	ldr.w	r7, [sp], #4
    1006:	4770      	bx	lr

00001008 <RCC_GetITStatus>:
    1008:	b480      	push	{r7}
    100a:	b085      	sub	sp, #20
    100c:	af00      	add	r7, sp, #0
    100e:	4603      	mov	r3, r0
    1010:	71fb      	strb	r3, [r7, #7]
    1012:	2300      	movs	r3, #0
    1014:	73fb      	strb	r3, [r7, #15]
    1016:	f44f 5380 	mov.w	r3, #4096	; 0x1000
    101a:	f2c4 0302 	movt	r3, #16386	; 0x4002
    101e:	689a      	ldr	r2, [r3, #8]
    1020:	79fb      	ldrb	r3, [r7, #7]
    1022:	4013      	ands	r3, r2
    1024:	2b00      	cmp	r3, #0
    1026:	d002      	beq.n	102e <RCC_GetITStatus+0x26>
    1028:	2301      	movs	r3, #1
    102a:	73fb      	strb	r3, [r7, #15]
    102c:	e001      	b.n	1032 <RCC_GetITStatus+0x2a>
    102e:	2300      	movs	r3, #0
    1030:	73fb      	strb	r3, [r7, #15]
    1032:	7bfb      	ldrb	r3, [r7, #15]
    1034:	4618      	mov	r0, r3
    1036:	3714      	adds	r7, #20
    1038:	46bd      	mov	sp, r7
    103a:	f85d 7b04 	ldr.w	r7, [sp], #4
    103e:	4770      	bx	lr

00001040 <RCC_ClearITPendingBit>:
    1040:	b480      	push	{r7}
    1042:	b083      	sub	sp, #12
    1044:	af00      	add	r7, sp, #0
    1046:	4603      	mov	r3, r0
    1048:	71fb      	strb	r3, [r7, #7]
    104a:	f241 030a 	movw	r3, #4106	; 0x100a
    104e:	f2c4 0302 	movt	r3, #16386	; 0x4002
    1052:	79fa      	ldrb	r2, [r7, #7]
    1054:	701a      	strb	r2, [r3, #0]
    1056:	370c      	adds	r7, #12
    1058:	46bd      	mov	sp, r7
    105a:	f85d 7b04 	ldr.w	r7, [sp], #4
    105e:	4770      	bx	lr

00001060 <GPIO_DeInit>:
    1060:	b580      	push	{r7, lr}
    1062:	b082      	sub	sp, #8
    1064:	af00      	add	r7, sp, #0
    1066:	6078      	str	r0, [r7, #4]
    1068:	687a      	ldr	r2, [r7, #4]
    106a:	f44f 6300 	mov.w	r3, #2048	; 0x800
    106e:	f2c4 0301 	movt	r3, #16385	; 0x4001
    1072:	429a      	cmp	r2, r3
    1074:	d108      	bne.n	1088 <GPIO_DeInit+0x28>
    1076:	2004      	movs	r0, #4
    1078:	2101      	movs	r1, #1
    107a:	f7ff fef1 	bl	e60 <RCC_APB2PeriphResetCmd>
    107e:	2004      	movs	r0, #4
    1080:	2100      	movs	r1, #0
    1082:	f7ff feed 	bl	e60 <RCC_APB2PeriphResetCmd>
    1086:	e060      	b.n	114a <GPIO_DeInit+0xea>
    1088:	687a      	ldr	r2, [r7, #4]
    108a:	f44f 6340 	mov.w	r3, #3072	; 0xc00
    108e:	f2c4 0301 	movt	r3, #16385	; 0x4001
    1092:	429a      	cmp	r2, r3
    1094:	d108      	bne.n	10a8 <GPIO_DeInit+0x48>
    1096:	2008      	movs	r0, #8
    1098:	2101      	movs	r1, #1
    109a:	f7ff fee1 	bl	e60 <RCC_APB2PeriphResetCmd>
    109e:	2008      	movs	r0, #8
    10a0:	2100      	movs	r1, #0
    10a2:	f7ff fedd 	bl	e60 <RCC_APB2PeriphResetCmd>
    10a6:	e050      	b.n	114a <GPIO_DeInit+0xea>
    10a8:	687a      	ldr	r2, [r7, #4]
    10aa:	f44f 5380 	mov.w	r3, #4096	; 0x1000
    10ae:	f2c4 0301 	movt	r3, #16385	; 0x4001
    10b2:	429a      	cmp	r2, r3
    10b4:	d108      	bne.n	10c8 <GPIO_DeInit+0x68>
    10b6:	2010      	movs	r0, #16
    10b8:	2101      	movs	r1, #1
    10ba:	f7ff fed1 	bl	e60 <RCC_APB2PeriphResetCmd>
    10be:	2010      	movs	r0, #16
    10c0:	2100      	movs	r1, #0
    10c2:	f7ff fecd 	bl	e60 <RCC_APB2PeriphResetCmd>
    10c6:	e040      	b.n	114a <GPIO_DeInit+0xea>
    10c8:	687a      	ldr	r2, [r7, #4]
    10ca:	f44f 53a0 	mov.w	r3, #5120	; 0x1400
    10ce:	f2c4 0301 	movt	r3, #16385	; 0x4001
    10d2:	429a      	cmp	r2, r3
    10d4:	d108      	bne.n	10e8 <GPIO_DeInit+0x88>
    10d6:	2020      	movs	r0, #32
    10d8:	2101      	movs	r1, #1
    10da:	f7ff fec1 	bl	e60 <RCC_APB2PeriphResetCmd>
    10de:	2020      	movs	r0, #32
    10e0:	2100      	movs	r1, #0
    10e2:	f7ff febd 	bl	e60 <RCC_APB2PeriphResetCmd>
    10e6:	e030      	b.n	114a <GPIO_DeInit+0xea>
    10e8:	687a      	ldr	r2, [r7, #4]
    10ea:	f44f 53c0 	mov.w	r3, #6144	; 0x1800
    10ee:	f2c4 0301 	movt	r3, #16385	; 0x4001
    10f2:	429a      	cmp	r2, r3
    10f4:	d108      	bne.n	1108 <GPIO_DeInit+0xa8>
    10f6:	2040      	movs	r0, #64	; 0x40
    10f8:	2101      	movs	r1, #1
    10fa:	f7ff feb1 	bl	e60 <RCC_APB2PeriphResetCmd>
    10fe:	2040      	movs	r0, #64	; 0x40
    1100:	2100      	movs	r1, #0
    1102:	f7ff fead 	bl	e60 <RCC_APB2PeriphResetCmd>
    1106:	e020      	b.n	114a <GPIO_DeInit+0xea>
    1108:	687a      	ldr	r2, [r7, #4]
    110a:	f44f 53e0 	mov.w	r3, #7168	; 0x1c00
    110e:	f2c4 0301 	movt	r3, #16385	; 0x4001
    1112:	429a      	cmp	r2, r3
    1114:	d108      	bne.n	1128 <GPIO_DeInit+0xc8>
    1116:	2080      	movs	r0, #128	; 0x80
    1118:	2101      	movs	r1, #1
    111a:	f7ff fea1 	bl	e60 <RCC_APB2PeriphResetCmd>
    111e:	2080      	movs	r0, #128	; 0x80
    1120:	2100      	movs	r1, #0
    1122:	f7ff fe9d 	bl	e60 <RCC_APB2PeriphResetCmd>
    1126:	e010      	b.n	114a <GPIO_DeInit+0xea>
    1128:	687a      	ldr	r2, [r7, #4]
    112a:	f44f 5300 	mov.w	r3, #8192	; 0x2000
    112e:	f2c4 0301 	movt	r3, #16385	; 0x4001
    1132:	429a      	cmp	r2, r3
    1134:	d109      	bne.n	114a <GPIO_DeInit+0xea>
    1136:	f44f 7080 	mov.w	r0, #256	; 0x100
    113a:	2101      	movs	r1, #1
    113c:	f7ff fe90 	bl	e60 <RCC_APB2PeriphResetCmd>
    1140:	f44f 7080 	mov.w	r0, #256	; 0x100
    1144:	2100      	movs	r1, #0
    1146:	f7ff fe8b 	bl	e60 <RCC_APB2PeriphResetCmd>
    114a:	3708      	adds	r7, #8
    114c:	46bd      	mov	sp, r7
    114e:	bd80      	pop	{r7, pc}

00001150 <GPIO_AFIODeInit>:
    1150:	b580      	push	{r7, lr}
    1152:	af00      	add	r7, sp, #0
    1154:	2001      	movs	r0, #1
    1156:	2101      	movs	r1, #1
    1158:	f7ff fe82 	bl	e60 <RCC_APB2PeriphResetCmd>
    115c:	2001      	movs	r0, #1
    115e:	2100      	movs	r1, #0
    1160:	f7ff fe7e 	bl	e60 <RCC_APB2PeriphResetCmd>
    1164:	bd80      	pop	{r7, pc}
    1166:	bf00      	nop

00001168 <GPIO_Init>:
    1168:	b480      	push	{r7}
    116a:	b089      	sub	sp, #36	; 0x24
    116c:	af00      	add	r7, sp, #0
    116e:	6078      	str	r0, [r7, #4]
    1170:	6039      	str	r1, [r7, #0]
    1172:	2300      	movs	r3, #0
    1174:	61fb      	str	r3, [r7, #28]
    1176:	2300      	movs	r3, #0
    1178:	613b      	str	r3, [r7, #16]
    117a:	2300      	movs	r3, #0
    117c:	61bb      	str	r3, [r7, #24]
    117e:	2300      	movs	r3, #0
    1180:	60fb      	str	r3, [r7, #12]
    1182:	2300      	movs	r3, #0
    1184:	617b      	str	r3, [r7, #20]
    1186:	2300      	movs	r3, #0
    1188:	60bb      	str	r3, [r7, #8]
    118a:	683b      	ldr	r3, [r7, #0]
    118c:	78db      	ldrb	r3, [r3, #3]
    118e:	f003 030f 	and.w	r3, r3, #15
    1192:	61fb      	str	r3, [r7, #28]
    1194:	683b      	ldr	r3, [r7, #0]
    1196:	78db      	ldrb	r3, [r3, #3]
    1198:	f003 0310 	and.w	r3, r3, #16
    119c:	2b00      	cmp	r3, #0
    119e:	d004      	beq.n	11aa <GPIO_Init+0x42>
    11a0:	683b      	ldr	r3, [r7, #0]
    11a2:	789b      	ldrb	r3, [r3, #2]
    11a4:	69fa      	ldr	r2, [r7, #28]
    11a6:	4313      	orrs	r3, r2
    11a8:	61fb      	str	r3, [r7, #28]
    11aa:	683b      	ldr	r3, [r7, #0]
    11ac:	881b      	ldrh	r3, [r3, #0]
    11ae:	b2db      	uxtb	r3, r3
    11b0:	2b00      	cmp	r3, #0
    11b2:	d044      	beq.n	123e <GPIO_Init+0xd6>
    11b4:	687b      	ldr	r3, [r7, #4]
    11b6:	681b      	ldr	r3, [r3, #0]
    11b8:	617b      	str	r3, [r7, #20]
    11ba:	2300      	movs	r3, #0
    11bc:	61bb      	str	r3, [r7, #24]
    11be:	e038      	b.n	1232 <GPIO_Init+0xca>
    11c0:	69bb      	ldr	r3, [r7, #24]
    11c2:	2201      	movs	r2, #1
    11c4:	fa02 f303 	lsl.w	r3, r2, r3
    11c8:	60fb      	str	r3, [r7, #12]
    11ca:	683b      	ldr	r3, [r7, #0]
    11cc:	881b      	ldrh	r3, [r3, #0]
    11ce:	461a      	mov	r2, r3
    11d0:	68fb      	ldr	r3, [r7, #12]
    11d2:	4013      	ands	r3, r2
    11d4:	613b      	str	r3, [r7, #16]
    11d6:	693a      	ldr	r2, [r7, #16]
    11d8:	68fb      	ldr	r3, [r7, #12]
    11da:	429a      	cmp	r2, r3
    11dc:	d126      	bne.n	122c <GPIO_Init+0xc4>
    11de:	69bb      	ldr	r3, [r7, #24]
    11e0:	009b      	lsls	r3, r3, #2
    11e2:	60fb      	str	r3, [r7, #12]
    11e4:	68fb      	ldr	r3, [r7, #12]
    11e6:	220f      	movs	r2, #15
    11e8:	fa02 f303 	lsl.w	r3, r2, r3
    11ec:	60bb      	str	r3, [r7, #8]
    11ee:	68bb      	ldr	r3, [r7, #8]
    11f0:	43db      	mvns	r3, r3
    11f2:	697a      	ldr	r2, [r7, #20]
    11f4:	4013      	ands	r3, r2
    11f6:	617b      	str	r3, [r7, #20]
    11f8:	68fb      	ldr	r3, [r7, #12]
    11fa:	69fa      	ldr	r2, [r7, #28]
    11fc:	fa02 f303 	lsl.w	r3, r2, r3
    1200:	697a      	ldr	r2, [r7, #20]
    1202:	4313      	orrs	r3, r2
    1204:	617b      	str	r3, [r7, #20]
    1206:	683b      	ldr	r3, [r7, #0]
    1208:	78db      	ldrb	r3, [r3, #3]
    120a:	2b28      	cmp	r3, #40	; 0x28
    120c:	d105      	bne.n	121a <GPIO_Init+0xb2>
    120e:	69bb      	ldr	r3, [r7, #24]
    1210:	2201      	movs	r2, #1
    1212:	409a      	lsls	r2, r3
    1214:	687b      	ldr	r3, [r7, #4]
    1216:	615a      	str	r2, [r3, #20]
    1218:	e008      	b.n	122c <GPIO_Init+0xc4>
    121a:	683b      	ldr	r3, [r7, #0]
    121c:	78db      	ldrb	r3, [r3, #3]
    121e:	2b48      	cmp	r3, #72	; 0x48
    1220:	d104      	bne.n	122c <GPIO_Init+0xc4>
    1222:	69bb      	ldr	r3, [r7, #24]
    1224:	2201      	movs	r2, #1
    1226:	409a      	lsls	r2, r3
    1228:	687b      	ldr	r3, [r7, #4]
    122a:	611a      	str	r2, [r3, #16]
    122c:	69bb      	ldr	r3, [r7, #24]
    122e:	3301      	adds	r3, #1
    1230:	61bb      	str	r3, [r7, #24]
    1232:	69bb      	ldr	r3, [r7, #24]
    1234:	2b07      	cmp	r3, #7
    1236:	d9c3      	bls.n	11c0 <GPIO_Init+0x58>
    1238:	687b      	ldr	r3, [r7, #4]
    123a:	697a      	ldr	r2, [r7, #20]
    123c:	601a      	str	r2, [r3, #0]
    123e:	683b      	ldr	r3, [r7, #0]
    1240:	881b      	ldrh	r3, [r3, #0]
    1242:	2bff      	cmp	r3, #255	; 0xff
    1244:	d946      	bls.n	12d4 <GPIO_Init+0x16c>
    1246:	687b      	ldr	r3, [r7, #4]
    1248:	685b      	ldr	r3, [r3, #4]
    124a:	617b      	str	r3, [r7, #20]
    124c:	2300      	movs	r3, #0
    124e:	61bb      	str	r3, [r7, #24]
    1250:	e03a      	b.n	12c8 <GPIO_Init+0x160>
    1252:	69bb      	ldr	r3, [r7, #24]
    1254:	3308      	adds	r3, #8
    1256:	2201      	movs	r2, #1
    1258:	fa02 f303 	lsl.w	r3, r2, r3
    125c:	60fb      	str	r3, [r7, #12]
    125e:	683b      	ldr	r3, [r7, #0]
    1260:	881b      	ldrh	r3, [r3, #0]
    1262:	461a      	mov	r2, r3
    1264:	68fb      	ldr	r3, [r7, #12]
    1266:	4013      	ands	r3, r2
    1268:	613b      	str	r3, [r7, #16]
    126a:	693a      	ldr	r2, [r7, #16]
    126c:	68fb      	ldr	r3, [r7, #12]
    126e:	429a      	cmp	r2, r3
    1270:	d127      	bne.n	12c2 <GPIO_Init+0x15a>
    1272:	69bb      	ldr	r3, [r7, #24]
    1274:	009b      	lsls	r3, r3, #2
    1276:	60fb      	str	r3, [r7, #12]
    1278:	68fb      	ldr	r3, [r7, #12]
    127a:	220f      	movs	r2, #15
    127c:	fa02 f303 	lsl.w	r3, r2, r3
    1280:	60bb      	str	r3, [r7, #8]
    1282:	68bb      	ldr	r3, [r7, #8]
    1284:	43db      	mvns	r3, r3
    1286:	697a      	ldr	r2, [r7, #20]
    1288:	4013      	ands	r3, r2
    128a:	617b      	str	r3, [r7, #20]
    128c:	68fb      	ldr	r3, [r7, #12]
    128e:	69fa      	ldr	r2, [r7, #28]
    1290:	fa02 f303 	lsl.w	r3, r2, r3
    1294:	697a      	ldr	r2, [r7, #20]
    1296:	4313      	orrs	r3, r2
    1298:	617b      	str	r3, [r7, #20]
    129a:	683b      	ldr	r3, [r7, #0]
    129c:	78db      	ldrb	r3, [r3, #3]
    129e:	2b28      	cmp	r3, #40	; 0x28
    12a0:	d105      	bne.n	12ae <GPIO_Init+0x146>
    12a2:	69bb      	ldr	r3, [r7, #24]
    12a4:	3308      	adds	r3, #8
    12a6:	2201      	movs	r2, #1
    12a8:	409a      	lsls	r2, r3
    12aa:	687b      	ldr	r3, [r7, #4]
    12ac:	615a      	str	r2, [r3, #20]
    12ae:	683b      	ldr	r3, [r7, #0]
    12b0:	78db      	ldrb	r3, [r3, #3]
    12b2:	2b48      	cmp	r3, #72	; 0x48
    12b4:	d105      	bne.n	12c2 <GPIO_Init+0x15a>
    12b6:	69bb      	ldr	r3, [r7, #24]
    12b8:	3308      	adds	r3, #8
    12ba:	2201      	movs	r2, #1
    12bc:	409a      	lsls	r2, r3
    12be:	687b      	ldr	r3, [r7, #4]
    12c0:	611a      	str	r2, [r3, #16]
    12c2:	69bb      	ldr	r3, [r7, #24]
    12c4:	3301      	adds	r3, #1
    12c6:	61bb      	str	r3, [r7, #24]
    12c8:	69bb      	ldr	r3, [r7, #24]
    12ca:	2b07      	cmp	r3, #7
    12cc:	d9c1      	bls.n	1252 <GPIO_Init+0xea>
    12ce:	687b      	ldr	r3, [r7, #4]
    12d0:	697a      	ldr	r2, [r7, #20]
    12d2:	605a      	str	r2, [r3, #4]
    12d4:	3724      	adds	r7, #36	; 0x24
    12d6:	46bd      	mov	sp, r7
    12d8:	f85d 7b04 	ldr.w	r7, [sp], #4
    12dc:	4770      	bx	lr
    12de:	bf00      	nop

000012e0 <GPIO_StructInit>:
    12e0:	b480      	push	{r7}
    12e2:	b083      	sub	sp, #12
    12e4:	af00      	add	r7, sp, #0
    12e6:	6078      	str	r0, [r7, #4]
    12e8:	687b      	ldr	r3, [r7, #4]
    12ea:	f64f 72ff 	movw	r2, #65535	; 0xffff
    12ee:	801a      	strh	r2, [r3, #0]
    12f0:	687b      	ldr	r3, [r7, #4]
    12f2:	2202      	movs	r2, #2
    12f4:	709a      	strb	r2, [r3, #2]
    12f6:	687b      	ldr	r3, [r7, #4]
    12f8:	2204      	movs	r2, #4
    12fa:	70da      	strb	r2, [r3, #3]
    12fc:	370c      	adds	r7, #12
    12fe:	46bd      	mov	sp, r7
    1300:	f85d 7b04 	ldr.w	r7, [sp], #4
    1304:	4770      	bx	lr
    1306:	bf00      	nop

00001308 <GPIO_ReadInputDataBit>:
    1308:	b480      	push	{r7}
    130a:	b085      	sub	sp, #20
    130c:	af00      	add	r7, sp, #0
    130e:	6078      	str	r0, [r7, #4]
    1310:	460b      	mov	r3, r1
    1312:	807b      	strh	r3, [r7, #2]
    1314:	2300      	movs	r3, #0
    1316:	73fb      	strb	r3, [r7, #15]
    1318:	687b      	ldr	r3, [r7, #4]
    131a:	689a      	ldr	r2, [r3, #8]
    131c:	887b      	ldrh	r3, [r7, #2]
    131e:	4013      	ands	r3, r2
    1320:	2b00      	cmp	r3, #0
    1322:	d002      	beq.n	132a <GPIO_ReadInputDataBit+0x22>
    1324:	2301      	movs	r3, #1
    1326:	73fb      	strb	r3, [r7, #15]
    1328:	e001      	b.n	132e <GPIO_ReadInputDataBit+0x26>
    132a:	2300      	movs	r3, #0
    132c:	73fb      	strb	r3, [r7, #15]
    132e:	7bfb      	ldrb	r3, [r7, #15]
    1330:	4618      	mov	r0, r3
    1332:	3714      	adds	r7, #20
    1334:	46bd      	mov	sp, r7
    1336:	f85d 7b04 	ldr.w	r7, [sp], #4
    133a:	4770      	bx	lr

0000133c <GPIO_ReadInputData>:
    133c:	b480      	push	{r7}
    133e:	b083      	sub	sp, #12
    1340:	af00      	add	r7, sp, #0
    1342:	6078      	str	r0, [r7, #4]
    1344:	687b      	ldr	r3, [r7, #4]
    1346:	689b      	ldr	r3, [r3, #8]
    1348:	b29b      	uxth	r3, r3
    134a:	4618      	mov	r0, r3
    134c:	370c      	adds	r7, #12
    134e:	46bd      	mov	sp, r7
    1350:	f85d 7b04 	ldr.w	r7, [sp], #4
    1354:	4770      	bx	lr
    1356:	bf00      	nop

00001358 <GPIO_ReadOutputDataBit>:
    1358:	b480      	push	{r7}
    135a:	b085      	sub	sp, #20
    135c:	af00      	add	r7, sp, #0
    135e:	6078      	str	r0, [r7, #4]
    1360:	460b      	mov	r3, r1
    1362:	807b      	strh	r3, [r7, #2]
    1364:	2300      	movs	r3, #0
    1366:	73fb      	strb	r3, [r7, #15]
    1368:	687b      	ldr	r3, [r7, #4]
    136a:	68da      	ldr	r2, [r3, #12]
    136c:	887b      	ldrh	r3, [r7, #2]
    136e:	4013      	ands	r3, r2
    1370:	2b00      	cmp	r3, #0
    1372:	d002      	beq.n	137a <GPIO_ReadOutputDataBit+0x22>
    1374:	2301      	movs	r3, #1
    1376:	73fb      	strb	r3, [r7, #15]
    1378:	e001      	b.n	137e <GPIO_ReadOutputDataBit+0x26>
    137a:	2300      	movs	r3, #0
    137c:	73fb      	strb	r3, [r7, #15]
    137e:	7bfb      	ldrb	r3, [r7, #15]
    1380:	4618      	mov	r0, r3
    1382:	3714      	adds	r7, #20
    1384:	46bd      	mov	sp, r7
    1386:	f85d 7b04 	ldr.w	r7, [sp], #4
    138a:	4770      	bx	lr

0000138c <GPIO_ReadOutputData>:
    138c:	b480      	push	{r7}
    138e:	b083      	sub	sp, #12
    1390:	af00      	add	r7, sp, #0
    1392:	6078      	str	r0, [r7, #4]
    1394:	687b      	ldr	r3, [r7, #4]
    1396:	68db      	ldr	r3, [r3, #12]
    1398:	b29b      	uxth	r3, r3
    139a:	4618      	mov	r0, r3
    139c:	370c      	adds	r7, #12
    139e:	46bd      	mov	sp, r7
    13a0:	f85d 7b04 	ldr.w	r7, [sp], #4
    13a4:	4770      	bx	lr
    13a6:	bf00      	nop

000013a8 <GPIO_SetBits>:
    13a8:	b480      	push	{r7}
    13aa:	b083      	sub	sp, #12
    13ac:	af00      	add	r7, sp, #0
    13ae:	6078      	str	r0, [r7, #4]
    13b0:	460b      	mov	r3, r1
    13b2:	807b      	strh	r3, [r7, #2]
    13b4:	887a      	ldrh	r2, [r7, #2]
    13b6:	687b      	ldr	r3, [r7, #4]
    13b8:	611a      	str	r2, [r3, #16]
    13ba:	370c      	adds	r7, #12
    13bc:	46bd      	mov	sp, r7
    13be:	f85d 7b04 	ldr.w	r7, [sp], #4
    13c2:	4770      	bx	lr

000013c4 <GPIO_ResetBits>:
    13c4:	b480      	push	{r7}
    13c6:	b083      	sub	sp, #12
    13c8:	af00      	add	r7, sp, #0
    13ca:	6078      	str	r0, [r7, #4]
    13cc:	460b      	mov	r3, r1
    13ce:	807b      	strh	r3, [r7, #2]
    13d0:	887a      	ldrh	r2, [r7, #2]
    13d2:	687b      	ldr	r3, [r7, #4]
    13d4:	615a      	str	r2, [r3, #20]
    13d6:	370c      	adds	r7, #12
    13d8:	46bd      	mov	sp, r7
    13da:	f85d 7b04 	ldr.w	r7, [sp], #4
    13de:	4770      	bx	lr

000013e0 <GPIO_WriteBit>:
    13e0:	b480      	push	{r7}
    13e2:	b083      	sub	sp, #12
    13e4:	af00      	add	r7, sp, #0
    13e6:	6078      	str	r0, [r7, #4]
    13e8:	4613      	mov	r3, r2
    13ea:	460a      	mov	r2, r1
    13ec:	807a      	strh	r2, [r7, #2]
    13ee:	707b      	strb	r3, [r7, #1]
    13f0:	787b      	ldrb	r3, [r7, #1]
    13f2:	2b00      	cmp	r3, #0
    13f4:	d003      	beq.n	13fe <GPIO_WriteBit+0x1e>
    13f6:	887a      	ldrh	r2, [r7, #2]
    13f8:	687b      	ldr	r3, [r7, #4]
    13fa:	611a      	str	r2, [r3, #16]
    13fc:	e002      	b.n	1404 <GPIO_WriteBit+0x24>
    13fe:	887a      	ldrh	r2, [r7, #2]
    1400:	687b      	ldr	r3, [r7, #4]
    1402:	615a      	str	r2, [r3, #20]
    1404:	370c      	adds	r7, #12
    1406:	46bd      	mov	sp, r7
    1408:	f85d 7b04 	ldr.w	r7, [sp], #4
    140c:	4770      	bx	lr
    140e:	bf00      	nop

00001410 <GPIO_Write>:
    1410:	b480      	push	{r7}
    1412:	b083      	sub	sp, #12
    1414:	af00      	add	r7, sp, #0
    1416:	6078      	str	r0, [r7, #4]
    1418:	460b      	mov	r3, r1
    141a:	807b      	strh	r3, [r7, #2]
    141c:	887a      	ldrh	r2, [r7, #2]
    141e:	687b      	ldr	r3, [r7, #4]
    1420:	60da      	str	r2, [r3, #12]
    1422:	370c      	adds	r7, #12
    1424:	46bd      	mov	sp, r7
    1426:	f85d 7b04 	ldr.w	r7, [sp], #4
    142a:	4770      	bx	lr

0000142c <GPIO_PinLockConfig>:
    142c:	b480      	push	{r7}
    142e:	b085      	sub	sp, #20
    1430:	af00      	add	r7, sp, #0
    1432:	6078      	str	r0, [r7, #4]
    1434:	460b      	mov	r3, r1
    1436:	807b      	strh	r3, [r7, #2]
    1438:	f44f 3380 	mov.w	r3, #65536	; 0x10000
    143c:	60fb      	str	r3, [r7, #12]
    143e:	887b      	ldrh	r3, [r7, #2]
    1440:	68fa      	ldr	r2, [r7, #12]
    1442:	4313      	orrs	r3, r2
    1444:	60fb      	str	r3, [r7, #12]
    1446:	687b      	ldr	r3, [r7, #4]
    1448:	68fa      	ldr	r2, [r7, #12]
    144a:	619a      	str	r2, [r3, #24]
    144c:	887a      	ldrh	r2, [r7, #2]
    144e:	687b      	ldr	r3, [r7, #4]
    1450:	619a      	str	r2, [r3, #24]
    1452:	687b      	ldr	r3, [r7, #4]
    1454:	68fa      	ldr	r2, [r7, #12]
    1456:	619a      	str	r2, [r3, #24]
    1458:	687b      	ldr	r3, [r7, #4]
    145a:	699b      	ldr	r3, [r3, #24]
    145c:	60fb      	str	r3, [r7, #12]
    145e:	687b      	ldr	r3, [r7, #4]
    1460:	699b      	ldr	r3, [r3, #24]
    1462:	60fb      	str	r3, [r7, #12]
    1464:	3714      	adds	r7, #20
    1466:	46bd      	mov	sp, r7
    1468:	f85d 7b04 	ldr.w	r7, [sp], #4
    146c:	4770      	bx	lr
    146e:	bf00      	nop

00001470 <GPIO_EventOutputConfig>:
    1470:	b480      	push	{r7}
    1472:	b085      	sub	sp, #20
    1474:	af00      	add	r7, sp, #0
    1476:	4602      	mov	r2, r0
    1478:	460b      	mov	r3, r1
    147a:	71fa      	strb	r2, [r7, #7]
    147c:	71bb      	strb	r3, [r7, #6]
    147e:	2300      	movs	r3, #0
    1480:	60fb      	str	r3, [r7, #12]
    1482:	2300      	movs	r3, #0
    1484:	f2c4 0301 	movt	r3, #16385	; 0x4001
    1488:	681b      	ldr	r3, [r3, #0]
    148a:	60fb      	str	r3, [r7, #12]
    148c:	68fa      	ldr	r2, [r7, #12]
    148e:	f64f 7380 	movw	r3, #65408	; 0xff80
    1492:	4013      	ands	r3, r2
    1494:	60fb      	str	r3, [r7, #12]
    1496:	79fb      	ldrb	r3, [r7, #7]
    1498:	011b      	lsls	r3, r3, #4
    149a:	68fa      	ldr	r2, [r7, #12]
    149c:	4313      	orrs	r3, r2
    149e:	60fb      	str	r3, [r7, #12]
    14a0:	79bb      	ldrb	r3, [r7, #6]
    14a2:	68fa      	ldr	r2, [r7, #12]
    14a4:	4313      	orrs	r3, r2
    14a6:	60fb      	str	r3, [r7, #12]
    14a8:	2300      	movs	r3, #0
    14aa:	f2c4 0301 	movt	r3, #16385	; 0x4001
    14ae:	68fa      	ldr	r2, [r7, #12]
    14b0:	601a      	str	r2, [r3, #0]
    14b2:	3714      	adds	r7, #20
    14b4:	46bd      	mov	sp, r7
    14b6:	f85d 7b04 	ldr.w	r7, [sp], #4
    14ba:	4770      	bx	lr

000014bc <GPIO_EventOutputCmd>:
    14bc:	b480      	push	{r7}
    14be:	b083      	sub	sp, #12
    14c0:	af00      	add	r7, sp, #0
    14c2:	4603      	mov	r3, r0
    14c4:	71fb      	strb	r3, [r7, #7]
    14c6:	231c      	movs	r3, #28
    14c8:	f2c4 2320 	movt	r3, #16928	; 0x4220
    14cc:	79fa      	ldrb	r2, [r7, #7]
    14ce:	601a      	str	r2, [r3, #0]
    14d0:	370c      	adds	r7, #12
    14d2:	46bd      	mov	sp, r7
    14d4:	f85d 7b04 	ldr.w	r7, [sp], #4
    14d8:	4770      	bx	lr
    14da:	bf00      	nop

000014dc <GPIO_PinRemapConfig>:
    14dc:	b480      	push	{r7}
    14de:	b087      	sub	sp, #28
    14e0:	af00      	add	r7, sp, #0
    14e2:	6078      	str	r0, [r7, #4]
    14e4:	460b      	mov	r3, r1
    14e6:	70fb      	strb	r3, [r7, #3]
    14e8:	2300      	movs	r3, #0
    14ea:	613b      	str	r3, [r7, #16]
    14ec:	2300      	movs	r3, #0
    14ee:	60fb      	str	r3, [r7, #12]
    14f0:	2300      	movs	r3, #0
    14f2:	617b      	str	r3, [r7, #20]
    14f4:	2300      	movs	r3, #0
    14f6:	60bb      	str	r3, [r7, #8]
    14f8:	687b      	ldr	r3, [r7, #4]
    14fa:	2b00      	cmp	r3, #0
    14fc:	da05      	bge.n	150a <GPIO_PinRemapConfig+0x2e>
    14fe:	2300      	movs	r3, #0
    1500:	f2c4 0301 	movt	r3, #16385	; 0x4001
    1504:	69db      	ldr	r3, [r3, #28]
    1506:	617b      	str	r3, [r7, #20]
    1508:	e004      	b.n	1514 <GPIO_PinRemapConfig+0x38>
    150a:	2300      	movs	r3, #0
    150c:	f2c4 0301 	movt	r3, #16385	; 0x4001
    1510:	685b      	ldr	r3, [r3, #4]
    1512:	617b      	str	r3, [r7, #20]
    1514:	687b      	ldr	r3, [r7, #4]
    1516:	f403 2370 	and.w	r3, r3, #983040	; 0xf0000
    151a:	0c1b      	lsrs	r3, r3, #16
    151c:	60bb      	str	r3, [r7, #8]
    151e:	687b      	ldr	r3, [r7, #4]
    1520:	b29b      	uxth	r3, r3
    1522:	613b      	str	r3, [r7, #16]
    1524:	687b      	ldr	r3, [r7, #4]
    1526:	f403 1340 	and.w	r3, r3, #3145728	; 0x300000
    152a:	f5b3 1f40 	cmp.w	r3, #3145728	; 0x300000
    152e:	d10e      	bne.n	154e <GPIO_PinRemapConfig+0x72>
    1530:	697b      	ldr	r3, [r7, #20]
    1532:	f023 6370 	bic.w	r3, r3, #251658240	; 0xf000000
    1536:	617b      	str	r3, [r7, #20]
    1538:	2300      	movs	r3, #0
    153a:	f2c4 0301 	movt	r3, #16385	; 0x4001
    153e:	2200      	movs	r2, #0
    1540:	f2c4 0201 	movt	r2, #16385	; 0x4001
    1544:	6852      	ldr	r2, [r2, #4]
    1546:	f022 6270 	bic.w	r2, r2, #251658240	; 0xf000000
    154a:	605a      	str	r2, [r3, #4]
    154c:	e021      	b.n	1592 <GPIO_PinRemapConfig+0xb6>
    154e:	687b      	ldr	r3, [r7, #4]
    1550:	f403 1380 	and.w	r3, r3, #1048576	; 0x100000
    1554:	2b00      	cmp	r3, #0
    1556:	d00e      	beq.n	1576 <GPIO_PinRemapConfig+0x9a>
    1558:	68bb      	ldr	r3, [r7, #8]
    155a:	2203      	movs	r2, #3
    155c:	fa02 f303 	lsl.w	r3, r2, r3
    1560:	60fb      	str	r3, [r7, #12]
    1562:	68fb      	ldr	r3, [r7, #12]
    1564:	43db      	mvns	r3, r3
    1566:	697a      	ldr	r2, [r7, #20]
    1568:	4013      	ands	r3, r2
    156a:	617b      	str	r3, [r7, #20]
    156c:	697b      	ldr	r3, [r7, #20]
    156e:	f043 6370 	orr.w	r3, r3, #251658240	; 0xf000000
    1572:	617b      	str	r3, [r7, #20]
    1574:	e00d      	b.n	1592 <GPIO_PinRemapConfig+0xb6>
    1576:	687b      	ldr	r3, [r7, #4]
    1578:	0d5b      	lsrs	r3, r3, #21
    157a:	011b      	lsls	r3, r3, #4
    157c:	693a      	ldr	r2, [r7, #16]
    157e:	fa02 f303 	lsl.w	r3, r2, r3
    1582:	43db      	mvns	r3, r3
    1584:	697a      	ldr	r2, [r7, #20]
    1586:	4013      	ands	r3, r2
    1588:	617b      	str	r3, [r7, #20]
    158a:	697b      	ldr	r3, [r7, #20]
    158c:	f043 6370 	orr.w	r3, r3, #251658240	; 0xf000000
    1590:	617b      	str	r3, [r7, #20]
    1592:	78fb      	ldrb	r3, [r7, #3]
    1594:	2b00      	cmp	r3, #0
    1596:	d008      	beq.n	15aa <GPIO_PinRemapConfig+0xce>
    1598:	687b      	ldr	r3, [r7, #4]
    159a:	0d5b      	lsrs	r3, r3, #21
    159c:	011b      	lsls	r3, r3, #4
    159e:	693a      	ldr	r2, [r7, #16]
    15a0:	fa02 f303 	lsl.w	r3, r2, r3
    15a4:	697a      	ldr	r2, [r7, #20]
    15a6:	4313      	orrs	r3, r2
    15a8:	617b      	str	r3, [r7, #20]
    15aa:	687b      	ldr	r3, [r7, #4]
    15ac:	2b00      	cmp	r3, #0
    15ae:	da05      	bge.n	15bc <GPIO_PinRemapConfig+0xe0>
    15b0:	2300      	movs	r3, #0
    15b2:	f2c4 0301 	movt	r3, #16385	; 0x4001
    15b6:	697a      	ldr	r2, [r7, #20]
    15b8:	61da      	str	r2, [r3, #28]
    15ba:	e004      	b.n	15c6 <GPIO_PinRemapConfig+0xea>
    15bc:	2300      	movs	r3, #0
    15be:	f2c4 0301 	movt	r3, #16385	; 0x4001
    15c2:	697a      	ldr	r2, [r7, #20]
    15c4:	605a      	str	r2, [r3, #4]
    15c6:	371c      	adds	r7, #28
    15c8:	46bd      	mov	sp, r7
    15ca:	f85d 7b04 	ldr.w	r7, [sp], #4
    15ce:	4770      	bx	lr

000015d0 <GPIO_EXTILineConfig>:
    15d0:	b490      	push	{r4, r7}
    15d2:	b084      	sub	sp, #16
    15d4:	af00      	add	r7, sp, #0
    15d6:	4602      	mov	r2, r0
    15d8:	460b      	mov	r3, r1
    15da:	71fa      	strb	r2, [r7, #7]
    15dc:	71bb      	strb	r3, [r7, #6]
    15de:	2300      	movs	r3, #0
    15e0:	60fb      	str	r3, [r7, #12]
    15e2:	79bb      	ldrb	r3, [r7, #6]
    15e4:	f003 0303 	and.w	r3, r3, #3
    15e8:	009b      	lsls	r3, r3, #2
    15ea:	220f      	movs	r2, #15
    15ec:	fa02 f303 	lsl.w	r3, r2, r3
    15f0:	60fb      	str	r3, [r7, #12]
    15f2:	2300      	movs	r3, #0
    15f4:	f2c4 0301 	movt	r3, #16385	; 0x4001
    15f8:	79ba      	ldrb	r2, [r7, #6]
    15fa:	0892      	lsrs	r2, r2, #2
    15fc:	b2d2      	uxtb	r2, r2
    15fe:	4610      	mov	r0, r2
    1600:	2200      	movs	r2, #0
    1602:	f2c4 0201 	movt	r2, #16385	; 0x4001
    1606:	79b9      	ldrb	r1, [r7, #6]
    1608:	0889      	lsrs	r1, r1, #2
    160a:	b2c9      	uxtb	r1, r1
    160c:	3102      	adds	r1, #2
    160e:	f852 1021 	ldr.w	r1, [r2, r1, lsl #2]
    1612:	68fa      	ldr	r2, [r7, #12]
    1614:	43d2      	mvns	r2, r2
    1616:	4011      	ands	r1, r2
    1618:	1c82      	adds	r2, r0, #2
    161a:	f843 1022 	str.w	r1, [r3, r2, lsl #2]
    161e:	2300      	movs	r3, #0
    1620:	f2c4 0301 	movt	r3, #16385	; 0x4001
    1624:	79ba      	ldrb	r2, [r7, #6]
    1626:	0892      	lsrs	r2, r2, #2
    1628:	b2d2      	uxtb	r2, r2
    162a:	4610      	mov	r0, r2
    162c:	2200      	movs	r2, #0
    162e:	f2c4 0201 	movt	r2, #16385	; 0x4001
    1632:	79b9      	ldrb	r1, [r7, #6]
    1634:	0889      	lsrs	r1, r1, #2
    1636:	b2c9      	uxtb	r1, r1
    1638:	3102      	adds	r1, #2
    163a:	f852 1021 	ldr.w	r1, [r2, r1, lsl #2]
    163e:	79fc      	ldrb	r4, [r7, #7]
    1640:	79ba      	ldrb	r2, [r7, #6]
    1642:	f002 0203 	and.w	r2, r2, #3
    1646:	0092      	lsls	r2, r2, #2
    1648:	fa04 f202 	lsl.w	r2, r4, r2
    164c:	4311      	orrs	r1, r2
    164e:	1c82      	adds	r2, r0, #2
    1650:	f843 1022 	str.w	r1, [r3, r2, lsl #2]
    1654:	3710      	adds	r7, #16
    1656:	46bd      	mov	sp, r7
    1658:	bc90      	pop	{r4, r7}
    165a:	4770      	bx	lr

0000165c <GPIO_ETH_MediaInterfaceConfig>:
    165c:	b480      	push	{r7}
    165e:	b083      	sub	sp, #12
    1660:	af00      	add	r7, sp, #0
    1662:	6078      	str	r0, [r7, #4]
    1664:	23dc      	movs	r3, #220	; 0xdc
    1666:	f2c4 2320 	movt	r3, #16928	; 0x4220
    166a:	687a      	ldr	r2, [r7, #4]
    166c:	601a      	str	r2, [r3, #0]
    166e:	370c      	adds	r7, #12
    1670:	46bd      	mov	sp, r7
    1672:	f85d 7b04 	ldr.w	r7, [sp], #4
    1676:	4770      	bx	lr

00001678 <USART_DeInit>:
    1678:	b580      	push	{r7, lr}
    167a:	b082      	sub	sp, #8
    167c:	af00      	add	r7, sp, #0
    167e:	6078      	str	r0, [r7, #4]
    1680:	687a      	ldr	r2, [r7, #4]
    1682:	f44f 5360 	mov.w	r3, #14336	; 0x3800
    1686:	f2c4 0301 	movt	r3, #16385	; 0x4001
    168a:	429a      	cmp	r2, r3
    168c:	d10a      	bne.n	16a4 <USART_DeInit+0x2c>
    168e:	f44f 4080 	mov.w	r0, #16384	; 0x4000
    1692:	2101      	movs	r1, #1
    1694:	f7ff fbe4 	bl	e60 <RCC_APB2PeriphResetCmd>
    1698:	f44f 4080 	mov.w	r0, #16384	; 0x4000
    169c:	2100      	movs	r1, #0
    169e:	f7ff fbdf 	bl	e60 <RCC_APB2PeriphResetCmd>
    16a2:	e046      	b.n	1732 <USART_DeInit+0xba>
    16a4:	687a      	ldr	r2, [r7, #4]
    16a6:	f44f 4388 	mov.w	r3, #17408	; 0x4400
    16aa:	f2c4 0300 	movt	r3, #16384	; 0x4000
    16ae:	429a      	cmp	r2, r3
    16b0:	d10a      	bne.n	16c8 <USART_DeInit+0x50>
    16b2:	f44f 3000 	mov.w	r0, #131072	; 0x20000
    16b6:	2101      	movs	r1, #1
    16b8:	f7ff fbfa 	bl	eb0 <RCC_APB1PeriphResetCmd>
    16bc:	f44f 3000 	mov.w	r0, #131072	; 0x20000
    16c0:	2100      	movs	r1, #0
    16c2:	f7ff fbf5 	bl	eb0 <RCC_APB1PeriphResetCmd>
    16c6:	e034      	b.n	1732 <USART_DeInit+0xba>
    16c8:	687a      	ldr	r2, [r7, #4]
    16ca:	f44f 4390 	mov.w	r3, #18432	; 0x4800
    16ce:	f2c4 0300 	movt	r3, #16384	; 0x4000
    16d2:	429a      	cmp	r2, r3
    16d4:	d10a      	bne.n	16ec <USART_DeInit+0x74>
    16d6:	f44f 2080 	mov.w	r0, #262144	; 0x40000
    16da:	2101      	movs	r1, #1
    16dc:	f7ff fbe8 	bl	eb0 <RCC_APB1PeriphResetCmd>
    16e0:	f44f 2080 	mov.w	r0, #262144	; 0x40000
    16e4:	2100      	movs	r1, #0
    16e6:	f7ff fbe3 	bl	eb0 <RCC_APB1PeriphResetCmd>
    16ea:	e022      	b.n	1732 <USART_DeInit+0xba>
    16ec:	687a      	ldr	r2, [r7, #4]
    16ee:	f44f 4398 	mov.w	r3, #19456	; 0x4c00
    16f2:	f2c4 0300 	movt	r3, #16384	; 0x4000
    16f6:	429a      	cmp	r2, r3
    16f8:	d10a      	bne.n	1710 <USART_DeInit+0x98>
    16fa:	f44f 2000 	mov.w	r0, #524288	; 0x80000
    16fe:	2101      	movs	r1, #1
    1700:	f7ff fbd6 	bl	eb0 <RCC_APB1PeriphResetCmd>
    1704:	f44f 2000 	mov.w	r0, #524288	; 0x80000
    1708:	2100      	movs	r1, #0
    170a:	f7ff fbd1 	bl	eb0 <RCC_APB1PeriphResetCmd>
    170e:	e010      	b.n	1732 <USART_DeInit+0xba>
    1710:	687a      	ldr	r2, [r7, #4]
    1712:	f44f 43a0 	mov.w	r3, #20480	; 0x5000
    1716:	f2c4 0300 	movt	r3, #16384	; 0x4000
    171a:	429a      	cmp	r2, r3
    171c:	d109      	bne.n	1732 <USART_DeInit+0xba>
    171e:	f44f 1080 	mov.w	r0, #1048576	; 0x100000
    1722:	2101      	movs	r1, #1
    1724:	f7ff fbc4 	bl	eb0 <RCC_APB1PeriphResetCmd>
    1728:	f44f 1080 	mov.w	r0, #1048576	; 0x100000
    172c:	2100      	movs	r1, #0
    172e:	f7ff fbbf 	bl	eb0 <RCC_APB1PeriphResetCmd>
    1732:	3708      	adds	r7, #8
    1734:	46bd      	mov	sp, r7
    1736:	bd80      	pop	{r7, pc}

00001738 <USART_Init>:
    1738:	b580      	push	{r7, lr}
    173a:	b08c      	sub	sp, #48	; 0x30
    173c:	af00      	add	r7, sp, #0
    173e:	6078      	str	r0, [r7, #4]
    1740:	6039      	str	r1, [r7, #0]
    1742:	2300      	movs	r3, #0
    1744:	62fb      	str	r3, [r7, #44]	; 0x2c
    1746:	2300      	movs	r3, #0
    1748:	62bb      	str	r3, [r7, #40]	; 0x28
    174a:	2300      	movs	r3, #0
    174c:	627b      	str	r3, [r7, #36]	; 0x24
    174e:	2300      	movs	r3, #0
    1750:	623b      	str	r3, [r7, #32]
    1752:	2300      	movs	r3, #0
    1754:	61fb      	str	r3, [r7, #28]
    1756:	687b      	ldr	r3, [r7, #4]
    1758:	61fb      	str	r3, [r7, #28]
    175a:	687b      	ldr	r3, [r7, #4]
    175c:	8a1b      	ldrh	r3, [r3, #16]
    175e:	b29b      	uxth	r3, r3
    1760:	62fb      	str	r3, [r7, #44]	; 0x2c
    1762:	6afa      	ldr	r2, [r7, #44]	; 0x2c
    1764:	f64c 73ff 	movw	r3, #53247	; 0xcfff
    1768:	4013      	ands	r3, r2
    176a:	62fb      	str	r3, [r7, #44]	; 0x2c
    176c:	683b      	ldr	r3, [r7, #0]
    176e:	88db      	ldrh	r3, [r3, #6]
    1770:	6afa      	ldr	r2, [r7, #44]	; 0x2c
    1772:	4313      	orrs	r3, r2
    1774:	62fb      	str	r3, [r7, #44]	; 0x2c
    1776:	6afb      	ldr	r3, [r7, #44]	; 0x2c
    1778:	b29a      	uxth	r2, r3
    177a:	687b      	ldr	r3, [r7, #4]
    177c:	821a      	strh	r2, [r3, #16]
    177e:	687b      	ldr	r3, [r7, #4]
    1780:	899b      	ldrh	r3, [r3, #12]
    1782:	b29b      	uxth	r3, r3
    1784:	62fb      	str	r3, [r7, #44]	; 0x2c
    1786:	6afa      	ldr	r2, [r7, #44]	; 0x2c
    1788:	f64e 13f3 	movw	r3, #59891	; 0xe9f3
    178c:	4013      	ands	r3, r2
    178e:	62fb      	str	r3, [r7, #44]	; 0x2c
    1790:	683b      	ldr	r3, [r7, #0]
    1792:	889a      	ldrh	r2, [r3, #4]
    1794:	683b      	ldr	r3, [r7, #0]
    1796:	891b      	ldrh	r3, [r3, #8]
    1798:	4313      	orrs	r3, r2
    179a:	b29a      	uxth	r2, r3
    179c:	683b      	ldr	r3, [r7, #0]
    179e:	895b      	ldrh	r3, [r3, #10]
    17a0:	4313      	orrs	r3, r2
    17a2:	b29b      	uxth	r3, r3
    17a4:	6afa      	ldr	r2, [r7, #44]	; 0x2c
    17a6:	4313      	orrs	r3, r2
    17a8:	62fb      	str	r3, [r7, #44]	; 0x2c
    17aa:	6afb      	ldr	r3, [r7, #44]	; 0x2c
    17ac:	b29a      	uxth	r2, r3
    17ae:	687b      	ldr	r3, [r7, #4]
    17b0:	819a      	strh	r2, [r3, #12]
    17b2:	687b      	ldr	r3, [r7, #4]
    17b4:	8a9b      	ldrh	r3, [r3, #20]
    17b6:	b29b      	uxth	r3, r3
    17b8:	62fb      	str	r3, [r7, #44]	; 0x2c
    17ba:	6afa      	ldr	r2, [r7, #44]	; 0x2c
    17bc:	f64f 43ff 	movw	r3, #64767	; 0xfcff
    17c0:	4013      	ands	r3, r2
    17c2:	62fb      	str	r3, [r7, #44]	; 0x2c
    17c4:	683b      	ldr	r3, [r7, #0]
    17c6:	899b      	ldrh	r3, [r3, #12]
    17c8:	6afa      	ldr	r2, [r7, #44]	; 0x2c
    17ca:	4313      	orrs	r3, r2
    17cc:	62fb      	str	r3, [r7, #44]	; 0x2c
    17ce:	6afb      	ldr	r3, [r7, #44]	; 0x2c
    17d0:	b29a      	uxth	r2, r3
    17d2:	687b      	ldr	r3, [r7, #4]
    17d4:	829a      	strh	r2, [r3, #20]
    17d6:	f107 0308 	add.w	r3, r7, #8
    17da:	4618      	mov	r0, r3
    17dc:	f7ff f9ea 	bl	bb4 <RCC_GetClocksFreq>
    17e0:	69fa      	ldr	r2, [r7, #28]
    17e2:	f44f 5360 	mov.w	r3, #14336	; 0x3800
    17e6:	f2c4 0301 	movt	r3, #16385	; 0x4001
    17ea:	429a      	cmp	r2, r3
    17ec:	d102      	bne.n	17f4 <USART_Init+0xbc>
    17ee:	697b      	ldr	r3, [r7, #20]
    17f0:	62bb      	str	r3, [r7, #40]	; 0x28
    17f2:	e001      	b.n	17f8 <USART_Init+0xc0>
    17f4:	693b      	ldr	r3, [r7, #16]
    17f6:	62bb      	str	r3, [r7, #40]	; 0x28
    17f8:	687b      	ldr	r3, [r7, #4]
    17fa:	899b      	ldrh	r3, [r3, #12]
    17fc:	b29b      	uxth	r3, r3
    17fe:	b29b      	uxth	r3, r3
    1800:	b21b      	sxth	r3, r3
    1802:	2b00      	cmp	r3, #0
    1804:	da0c      	bge.n	1820 <USART_Init+0xe8>
    1806:	6aba      	ldr	r2, [r7, #40]	; 0x28
    1808:	4613      	mov	r3, r2
    180a:	009b      	lsls	r3, r3, #2
    180c:	4413      	add	r3, r2
    180e:	009a      	lsls	r2, r3, #2
    1810:	441a      	add	r2, r3
    1812:	683b      	ldr	r3, [r7, #0]
    1814:	681b      	ldr	r3, [r3, #0]
    1816:	005b      	lsls	r3, r3, #1
    1818:	fbb2 f3f3 	udiv	r3, r2, r3
    181c:	627b      	str	r3, [r7, #36]	; 0x24
    181e:	e00b      	b.n	1838 <USART_Init+0x100>
    1820:	6aba      	ldr	r2, [r7, #40]	; 0x28
    1822:	4613      	mov	r3, r2
    1824:	009b      	lsls	r3, r3, #2
    1826:	4413      	add	r3, r2
    1828:	009a      	lsls	r2, r3, #2
    182a:	441a      	add	r2, r3
    182c:	683b      	ldr	r3, [r7, #0]
    182e:	681b      	ldr	r3, [r3, #0]
    1830:	009b      	lsls	r3, r3, #2
    1832:	fbb2 f3f3 	udiv	r3, r2, r3
    1836:	627b      	str	r3, [r7, #36]	; 0x24
    1838:	6a7a      	ldr	r2, [r7, #36]	; 0x24
    183a:	f248 531f 	movw	r3, #34079	; 0x851f
    183e:	f2c5 13eb 	movt	r3, #20971	; 0x51eb
    1842:	fba3 1302 	umull	r1, r3, r3, r2
    1846:	095b      	lsrs	r3, r3, #5
    1848:	011b      	lsls	r3, r3, #4
    184a:	62fb      	str	r3, [r7, #44]	; 0x2c
    184c:	6afb      	ldr	r3, [r7, #44]	; 0x2c
    184e:	091b      	lsrs	r3, r3, #4
    1850:	2264      	movs	r2, #100	; 0x64
    1852:	fb02 f303 	mul.w	r3, r2, r3
    1856:	6a7a      	ldr	r2, [r7, #36]	; 0x24
    1858:	1ad3      	subs	r3, r2, r3
    185a:	623b      	str	r3, [r7, #32]
    185c:	687b      	ldr	r3, [r7, #4]
    185e:	899b      	ldrh	r3, [r3, #12]
    1860:	b29b      	uxth	r3, r3
    1862:	b29b      	uxth	r3, r3
    1864:	b21b      	sxth	r3, r3
    1866:	2b00      	cmp	r3, #0
    1868:	da10      	bge.n	188c <USART_Init+0x154>
    186a:	6a3b      	ldr	r3, [r7, #32]
    186c:	00db      	lsls	r3, r3, #3
    186e:	f103 0232 	add.w	r2, r3, #50	; 0x32
    1872:	f248 531f 	movw	r3, #34079	; 0x851f
    1876:	f2c5 13eb 	movt	r3, #20971	; 0x51eb
    187a:	fba3 1302 	umull	r1, r3, r3, r2
    187e:	095b      	lsrs	r3, r3, #5
    1880:	f003 0307 	and.w	r3, r3, #7
    1884:	6afa      	ldr	r2, [r7, #44]	; 0x2c
    1886:	4313      	orrs	r3, r2
    1888:	62fb      	str	r3, [r7, #44]	; 0x2c
    188a:	e00f      	b.n	18ac <USART_Init+0x174>
    188c:	6a3b      	ldr	r3, [r7, #32]
    188e:	011b      	lsls	r3, r3, #4
    1890:	f103 0232 	add.w	r2, r3, #50	; 0x32
    1894:	f248 531f 	movw	r3, #34079	; 0x851f
    1898:	f2c5 13eb 	movt	r3, #20971	; 0x51eb
    189c:	fba3 1302 	umull	r1, r3, r3, r2
    18a0:	095b      	lsrs	r3, r3, #5
    18a2:	f003 030f 	and.w	r3, r3, #15
    18a6:	6afa      	ldr	r2, [r7, #44]	; 0x2c
    18a8:	4313      	orrs	r3, r2
    18aa:	62fb      	str	r3, [r7, #44]	; 0x2c
    18ac:	6afb      	ldr	r3, [r7, #44]	; 0x2c
    18ae:	b29a      	uxth	r2, r3
    18b0:	687b      	ldr	r3, [r7, #4]
    18b2:	811a      	strh	r2, [r3, #8]
    18b4:	3730      	adds	r7, #48	; 0x30
    18b6:	46bd      	mov	sp, r7
    18b8:	bd80      	pop	{r7, pc}
    18ba:	bf00      	nop

000018bc <USART_StructInit>:
    18bc:	b480      	push	{r7}
    18be:	b083      	sub	sp, #12
    18c0:	af00      	add	r7, sp, #0
    18c2:	6078      	str	r0, [r7, #4]
    18c4:	687b      	ldr	r3, [r7, #4]
    18c6:	f44f 5216 	mov.w	r2, #9600	; 0x2580
    18ca:	601a      	str	r2, [r3, #0]
    18cc:	687b      	ldr	r3, [r7, #4]
    18ce:	2200      	movs	r2, #0
    18d0:	809a      	strh	r2, [r3, #4]
    18d2:	687b      	ldr	r3, [r7, #4]
    18d4:	2200      	movs	r2, #0
    18d6:	80da      	strh	r2, [r3, #6]
    18d8:	687b      	ldr	r3, [r7, #4]
    18da:	2200      	movs	r2, #0
    18dc:	811a      	strh	r2, [r3, #8]
    18de:	687b      	ldr	r3, [r7, #4]
    18e0:	220c      	movs	r2, #12
    18e2:	815a      	strh	r2, [r3, #10]
    18e4:	687b      	ldr	r3, [r7, #4]
    18e6:	2200      	movs	r2, #0
    18e8:	819a      	strh	r2, [r3, #12]
    18ea:	370c      	adds	r7, #12
    18ec:	46bd      	mov	sp, r7
    18ee:	f85d 7b04 	ldr.w	r7, [sp], #4
    18f2:	4770      	bx	lr

000018f4 <USART_ClockInit>:
    18f4:	b480      	push	{r7}
    18f6:	b085      	sub	sp, #20
    18f8:	af00      	add	r7, sp, #0
    18fa:	6078      	str	r0, [r7, #4]
    18fc:	6039      	str	r1, [r7, #0]
    18fe:	2300      	movs	r3, #0
    1900:	60fb      	str	r3, [r7, #12]
    1902:	687b      	ldr	r3, [r7, #4]
    1904:	8a1b      	ldrh	r3, [r3, #16]
    1906:	b29b      	uxth	r3, r3
    1908:	60fb      	str	r3, [r7, #12]
    190a:	68fa      	ldr	r2, [r7, #12]
    190c:	f24f 03ff 	movw	r3, #61695	; 0xf0ff
    1910:	4013      	ands	r3, r2
    1912:	60fb      	str	r3, [r7, #12]
    1914:	683b      	ldr	r3, [r7, #0]
    1916:	881a      	ldrh	r2, [r3, #0]
    1918:	683b      	ldr	r3, [r7, #0]
    191a:	885b      	ldrh	r3, [r3, #2]
    191c:	4313      	orrs	r3, r2
    191e:	b29a      	uxth	r2, r3
    1920:	683b      	ldr	r3, [r7, #0]
    1922:	889b      	ldrh	r3, [r3, #4]
    1924:	4313      	orrs	r3, r2
    1926:	b29a      	uxth	r2, r3
    1928:	683b      	ldr	r3, [r7, #0]
    192a:	88db      	ldrh	r3, [r3, #6]
    192c:	4313      	orrs	r3, r2
    192e:	b29b      	uxth	r3, r3
    1930:	68fa      	ldr	r2, [r7, #12]
    1932:	4313      	orrs	r3, r2
    1934:	60fb      	str	r3, [r7, #12]
    1936:	68fb      	ldr	r3, [r7, #12]
    1938:	b29a      	uxth	r2, r3
    193a:	687b      	ldr	r3, [r7, #4]
    193c:	821a      	strh	r2, [r3, #16]
    193e:	3714      	adds	r7, #20
    1940:	46bd      	mov	sp, r7
    1942:	f85d 7b04 	ldr.w	r7, [sp], #4
    1946:	4770      	bx	lr

00001948 <USART_ClockStructInit>:
    1948:	b480      	push	{r7}
    194a:	b083      	sub	sp, #12
    194c:	af00      	add	r7, sp, #0
    194e:	6078      	str	r0, [r7, #4]
    1950:	687b      	ldr	r3, [r7, #4]
    1952:	2200      	movs	r2, #0
    1954:	801a      	strh	r2, [r3, #0]
    1956:	687b      	ldr	r3, [r7, #4]
    1958:	2200      	movs	r2, #0
    195a:	805a      	strh	r2, [r3, #2]
    195c:	687b      	ldr	r3, [r7, #4]
    195e:	2200      	movs	r2, #0
    1960:	809a      	strh	r2, [r3, #4]
    1962:	687b      	ldr	r3, [r7, #4]
    1964:	2200      	movs	r2, #0
    1966:	80da      	strh	r2, [r3, #6]
    1968:	370c      	adds	r7, #12
    196a:	46bd      	mov	sp, r7
    196c:	f85d 7b04 	ldr.w	r7, [sp], #4
    1970:	4770      	bx	lr
    1972:	bf00      	nop

00001974 <USART_Cmd>:
    1974:	b480      	push	{r7}
    1976:	b083      	sub	sp, #12
    1978:	af00      	add	r7, sp, #0
    197a:	6078      	str	r0, [r7, #4]
    197c:	460b      	mov	r3, r1
    197e:	70fb      	strb	r3, [r7, #3]
    1980:	78fb      	ldrb	r3, [r7, #3]
    1982:	2b00      	cmp	r3, #0
    1984:	d008      	beq.n	1998 <USART_Cmd+0x24>
    1986:	687b      	ldr	r3, [r7, #4]
    1988:	899b      	ldrh	r3, [r3, #12]
    198a:	b29b      	uxth	r3, r3
    198c:	f443 5300 	orr.w	r3, r3, #8192	; 0x2000
    1990:	b29a      	uxth	r2, r3
    1992:	687b      	ldr	r3, [r7, #4]
    1994:	819a      	strh	r2, [r3, #12]
    1996:	e007      	b.n	19a8 <USART_Cmd+0x34>
    1998:	687b      	ldr	r3, [r7, #4]
    199a:	899b      	ldrh	r3, [r3, #12]
    199c:	b29b      	uxth	r3, r3
    199e:	f423 5300 	bic.w	r3, r3, #8192	; 0x2000
    19a2:	b29a      	uxth	r2, r3
    19a4:	687b      	ldr	r3, [r7, #4]
    19a6:	819a      	strh	r2, [r3, #12]
    19a8:	370c      	adds	r7, #12
    19aa:	46bd      	mov	sp, r7
    19ac:	f85d 7b04 	ldr.w	r7, [sp], #4
    19b0:	4770      	bx	lr
    19b2:	bf00      	nop

000019b4 <USART_ITConfig>:
    19b4:	b480      	push	{r7}
    19b6:	b087      	sub	sp, #28
    19b8:	af00      	add	r7, sp, #0
    19ba:	6078      	str	r0, [r7, #4]
    19bc:	4613      	mov	r3, r2
    19be:	460a      	mov	r2, r1
    19c0:	807a      	strh	r2, [r7, #2]
    19c2:	707b      	strb	r3, [r7, #1]
    19c4:	2300      	movs	r3, #0
    19c6:	613b      	str	r3, [r7, #16]
    19c8:	2300      	movs	r3, #0
    19ca:	60fb      	str	r3, [r7, #12]
    19cc:	2300      	movs	r3, #0
    19ce:	60bb      	str	r3, [r7, #8]
    19d0:	2300      	movs	r3, #0
    19d2:	617b      	str	r3, [r7, #20]
    19d4:	687b      	ldr	r3, [r7, #4]
    19d6:	617b      	str	r3, [r7, #20]
    19d8:	887b      	ldrh	r3, [r7, #2]
    19da:	b2db      	uxtb	r3, r3
    19dc:	095b      	lsrs	r3, r3, #5
    19de:	b2db      	uxtb	r3, r3
    19e0:	613b      	str	r3, [r7, #16]
    19e2:	887b      	ldrh	r3, [r7, #2]
    19e4:	f003 031f 	and.w	r3, r3, #31
    19e8:	60fb      	str	r3, [r7, #12]
    19ea:	68fb      	ldr	r3, [r7, #12]
    19ec:	2201      	movs	r2, #1
    19ee:	fa02 f303 	lsl.w	r3, r2, r3
    19f2:	60bb      	str	r3, [r7, #8]
    19f4:	693b      	ldr	r3, [r7, #16]
    19f6:	2b01      	cmp	r3, #1
    19f8:	d103      	bne.n	1a02 <USART_ITConfig+0x4e>
    19fa:	697b      	ldr	r3, [r7, #20]
    19fc:	330c      	adds	r3, #12
    19fe:	617b      	str	r3, [r7, #20]
    1a00:	e009      	b.n	1a16 <USART_ITConfig+0x62>
    1a02:	693b      	ldr	r3, [r7, #16]
    1a04:	2b02      	cmp	r3, #2
    1a06:	d103      	bne.n	1a10 <USART_ITConfig+0x5c>
    1a08:	697b      	ldr	r3, [r7, #20]
    1a0a:	3310      	adds	r3, #16
    1a0c:	617b      	str	r3, [r7, #20]
    1a0e:	e002      	b.n	1a16 <USART_ITConfig+0x62>
    1a10:	697b      	ldr	r3, [r7, #20]
    1a12:	3314      	adds	r3, #20
    1a14:	617b      	str	r3, [r7, #20]
    1a16:	787b      	ldrb	r3, [r7, #1]
    1a18:	2b00      	cmp	r3, #0
    1a1a:	d006      	beq.n	1a2a <USART_ITConfig+0x76>
    1a1c:	697b      	ldr	r3, [r7, #20]
    1a1e:	697a      	ldr	r2, [r7, #20]
    1a20:	6811      	ldr	r1, [r2, #0]
    1a22:	68ba      	ldr	r2, [r7, #8]
    1a24:	430a      	orrs	r2, r1
    1a26:	601a      	str	r2, [r3, #0]
    1a28:	e006      	b.n	1a38 <USART_ITConfig+0x84>
    1a2a:	697b      	ldr	r3, [r7, #20]
    1a2c:	697a      	ldr	r2, [r7, #20]
    1a2e:	6811      	ldr	r1, [r2, #0]
    1a30:	68ba      	ldr	r2, [r7, #8]
    1a32:	43d2      	mvns	r2, r2
    1a34:	400a      	ands	r2, r1
    1a36:	601a      	str	r2, [r3, #0]
    1a38:	371c      	adds	r7, #28
    1a3a:	46bd      	mov	sp, r7
    1a3c:	f85d 7b04 	ldr.w	r7, [sp], #4
    1a40:	4770      	bx	lr
    1a42:	bf00      	nop

00001a44 <USART_DMACmd>:
    1a44:	b480      	push	{r7}
    1a46:	b083      	sub	sp, #12
    1a48:	af00      	add	r7, sp, #0
    1a4a:	6078      	str	r0, [r7, #4]
    1a4c:	4613      	mov	r3, r2
    1a4e:	460a      	mov	r2, r1
    1a50:	807a      	strh	r2, [r7, #2]
    1a52:	707b      	strb	r3, [r7, #1]
    1a54:	787b      	ldrb	r3, [r7, #1]
    1a56:	2b00      	cmp	r3, #0
    1a58:	d008      	beq.n	1a6c <USART_DMACmd+0x28>
    1a5a:	687b      	ldr	r3, [r7, #4]
    1a5c:	8a9b      	ldrh	r3, [r3, #20]
    1a5e:	b29a      	uxth	r2, r3
    1a60:	887b      	ldrh	r3, [r7, #2]
    1a62:	4313      	orrs	r3, r2
    1a64:	b29a      	uxth	r2, r3
    1a66:	687b      	ldr	r3, [r7, #4]
    1a68:	829a      	strh	r2, [r3, #20]
    1a6a:	e009      	b.n	1a80 <USART_DMACmd+0x3c>
    1a6c:	687b      	ldr	r3, [r7, #4]
    1a6e:	8a9b      	ldrh	r3, [r3, #20]
    1a70:	b29a      	uxth	r2, r3
    1a72:	887b      	ldrh	r3, [r7, #2]
    1a74:	43db      	mvns	r3, r3
    1a76:	b29b      	uxth	r3, r3
    1a78:	4013      	ands	r3, r2
    1a7a:	b29a      	uxth	r2, r3
    1a7c:	687b      	ldr	r3, [r7, #4]
    1a7e:	829a      	strh	r2, [r3, #20]
    1a80:	370c      	adds	r7, #12
    1a82:	46bd      	mov	sp, r7
    1a84:	f85d 7b04 	ldr.w	r7, [sp], #4
    1a88:	4770      	bx	lr
    1a8a:	bf00      	nop

00001a8c <USART_SetAddress>:
    1a8c:	b480      	push	{r7}
    1a8e:	b083      	sub	sp, #12
    1a90:	af00      	add	r7, sp, #0
    1a92:	6078      	str	r0, [r7, #4]
    1a94:	460b      	mov	r3, r1
    1a96:	70fb      	strb	r3, [r7, #3]
    1a98:	687b      	ldr	r3, [r7, #4]
    1a9a:	8a1b      	ldrh	r3, [r3, #16]
    1a9c:	b29b      	uxth	r3, r3
    1a9e:	f023 030f 	bic.w	r3, r3, #15
    1aa2:	b29a      	uxth	r2, r3
    1aa4:	687b      	ldr	r3, [r7, #4]
    1aa6:	821a      	strh	r2, [r3, #16]
    1aa8:	687b      	ldr	r3, [r7, #4]
    1aaa:	8a1b      	ldrh	r3, [r3, #16]
    1aac:	b29a      	uxth	r2, r3
    1aae:	78fb      	ldrb	r3, [r7, #3]
    1ab0:	b29b      	uxth	r3, r3
    1ab2:	4313      	orrs	r3, r2
    1ab4:	b29a      	uxth	r2, r3
    1ab6:	687b      	ldr	r3, [r7, #4]
    1ab8:	821a      	strh	r2, [r3, #16]
    1aba:	370c      	adds	r7, #12
    1abc:	46bd      	mov	sp, r7
    1abe:	f85d 7b04 	ldr.w	r7, [sp], #4
    1ac2:	4770      	bx	lr

00001ac4 <USART_WakeUpConfig>:
    1ac4:	b480      	push	{r7}
    1ac6:	b083      	sub	sp, #12
    1ac8:	af00      	add	r7, sp, #0
    1aca:	6078      	str	r0, [r7, #4]
    1acc:	460b      	mov	r3, r1
    1ace:	807b      	strh	r3, [r7, #2]
    1ad0:	687b      	ldr	r3, [r7, #4]
    1ad2:	899b      	ldrh	r3, [r3, #12]
    1ad4:	b29b      	uxth	r3, r3
    1ad6:	f423 6300 	bic.w	r3, r3, #2048	; 0x800
    1ada:	b29a      	uxth	r2, r3
    1adc:	687b      	ldr	r3, [r7, #4]
    1ade:	819a      	strh	r2, [r3, #12]
    1ae0:	687b      	ldr	r3, [r7, #4]
    1ae2:	899b      	ldrh	r3, [r3, #12]
    1ae4:	b29a      	uxth	r2, r3
    1ae6:	887b      	ldrh	r3, [r7, #2]
    1ae8:	4313      	orrs	r3, r2
    1aea:	b29a      	uxth	r2, r3
    1aec:	687b      	ldr	r3, [r7, #4]
    1aee:	819a      	strh	r2, [r3, #12]
    1af0:	370c      	adds	r7, #12
    1af2:	46bd      	mov	sp, r7
    1af4:	f85d 7b04 	ldr.w	r7, [sp], #4
    1af8:	4770      	bx	lr
    1afa:	bf00      	nop

00001afc <USART_ReceiverWakeUpCmd>:
    1afc:	b480      	push	{r7}
    1afe:	b083      	sub	sp, #12
    1b00:	af00      	add	r7, sp, #0
    1b02:	6078      	str	r0, [r7, #4]
    1b04:	460b      	mov	r3, r1
    1b06:	70fb      	strb	r3, [r7, #3]
    1b08:	78fb      	ldrb	r3, [r7, #3]
    1b0a:	2b00      	cmp	r3, #0
    1b0c:	d008      	beq.n	1b20 <USART_ReceiverWakeUpCmd+0x24>
    1b0e:	687b      	ldr	r3, [r7, #4]
    1b10:	899b      	ldrh	r3, [r3, #12]
    1b12:	b29b      	uxth	r3, r3
    1b14:	f043 0302 	orr.w	r3, r3, #2
    1b18:	b29a      	uxth	r2, r3
    1b1a:	687b      	ldr	r3, [r7, #4]
    1b1c:	819a      	strh	r2, [r3, #12]
    1b1e:	e007      	b.n	1b30 <USART_ReceiverWakeUpCmd+0x34>
    1b20:	687b      	ldr	r3, [r7, #4]
    1b22:	899b      	ldrh	r3, [r3, #12]
    1b24:	b29b      	uxth	r3, r3
    1b26:	f023 0302 	bic.w	r3, r3, #2
    1b2a:	b29a      	uxth	r2, r3
    1b2c:	687b      	ldr	r3, [r7, #4]
    1b2e:	819a      	strh	r2, [r3, #12]
    1b30:	370c      	adds	r7, #12
    1b32:	46bd      	mov	sp, r7
    1b34:	f85d 7b04 	ldr.w	r7, [sp], #4
    1b38:	4770      	bx	lr
    1b3a:	bf00      	nop

00001b3c <USART_LINBreakDetectLengthConfig>:
    1b3c:	b480      	push	{r7}
    1b3e:	b083      	sub	sp, #12
    1b40:	af00      	add	r7, sp, #0
    1b42:	6078      	str	r0, [r7, #4]
    1b44:	460b      	mov	r3, r1
    1b46:	807b      	strh	r3, [r7, #2]
    1b48:	687b      	ldr	r3, [r7, #4]
    1b4a:	8a1b      	ldrh	r3, [r3, #16]
    1b4c:	b29b      	uxth	r3, r3
    1b4e:	f023 0320 	bic.w	r3, r3, #32
    1b52:	b29a      	uxth	r2, r3
    1b54:	687b      	ldr	r3, [r7, #4]
    1b56:	821a      	strh	r2, [r3, #16]
    1b58:	687b      	ldr	r3, [r7, #4]
    1b5a:	8a1b      	ldrh	r3, [r3, #16]
    1b5c:	b29a      	uxth	r2, r3
    1b5e:	887b      	ldrh	r3, [r7, #2]
    1b60:	4313      	orrs	r3, r2
    1b62:	b29a      	uxth	r2, r3
    1b64:	687b      	ldr	r3, [r7, #4]
    1b66:	821a      	strh	r2, [r3, #16]
    1b68:	370c      	adds	r7, #12
    1b6a:	46bd      	mov	sp, r7
    1b6c:	f85d 7b04 	ldr.w	r7, [sp], #4
    1b70:	4770      	bx	lr
    1b72:	bf00      	nop

00001b74 <USART_LINCmd>:
    1b74:	b480      	push	{r7}
    1b76:	b083      	sub	sp, #12
    1b78:	af00      	add	r7, sp, #0
    1b7a:	6078      	str	r0, [r7, #4]
    1b7c:	460b      	mov	r3, r1
    1b7e:	70fb      	strb	r3, [r7, #3]
    1b80:	78fb      	ldrb	r3, [r7, #3]
    1b82:	2b00      	cmp	r3, #0
    1b84:	d008      	beq.n	1b98 <USART_LINCmd+0x24>
    1b86:	687b      	ldr	r3, [r7, #4]
    1b88:	8a1b      	ldrh	r3, [r3, #16]
    1b8a:	b29b      	uxth	r3, r3
    1b8c:	f443 4380 	orr.w	r3, r3, #16384	; 0x4000
    1b90:	b29a      	uxth	r2, r3
    1b92:	687b      	ldr	r3, [r7, #4]
    1b94:	821a      	strh	r2, [r3, #16]
    1b96:	e007      	b.n	1ba8 <USART_LINCmd+0x34>
    1b98:	687b      	ldr	r3, [r7, #4]
    1b9a:	8a1b      	ldrh	r3, [r3, #16]
    1b9c:	b29b      	uxth	r3, r3
    1b9e:	f423 4380 	bic.w	r3, r3, #16384	; 0x4000
    1ba2:	b29a      	uxth	r2, r3
    1ba4:	687b      	ldr	r3, [r7, #4]
    1ba6:	821a      	strh	r2, [r3, #16]
    1ba8:	370c      	adds	r7, #12
    1baa:	46bd      	mov	sp, r7
    1bac:	f85d 7b04 	ldr.w	r7, [sp], #4
    1bb0:	4770      	bx	lr
    1bb2:	bf00      	nop

00001bb4 <USART_SendData>:
    1bb4:	b480      	push	{r7}
    1bb6:	b083      	sub	sp, #12
    1bb8:	af00      	add	r7, sp, #0
    1bba:	6078      	str	r0, [r7, #4]
    1bbc:	460b      	mov	r3, r1
    1bbe:	807b      	strh	r3, [r7, #2]
    1bc0:	887b      	ldrh	r3, [r7, #2]
    1bc2:	f3c3 0308 	ubfx	r3, r3, #0, #9
    1bc6:	b29a      	uxth	r2, r3
    1bc8:	687b      	ldr	r3, [r7, #4]
    1bca:	809a      	strh	r2, [r3, #4]
    1bcc:	370c      	adds	r7, #12
    1bce:	46bd      	mov	sp, r7
    1bd0:	f85d 7b04 	ldr.w	r7, [sp], #4
    1bd4:	4770      	bx	lr
    1bd6:	bf00      	nop

00001bd8 <USART_ReceiveData>:
    1bd8:	b480      	push	{r7}
    1bda:	b083      	sub	sp, #12
    1bdc:	af00      	add	r7, sp, #0
    1bde:	6078      	str	r0, [r7, #4]
    1be0:	687b      	ldr	r3, [r7, #4]
    1be2:	889b      	ldrh	r3, [r3, #4]
    1be4:	b29b      	uxth	r3, r3
    1be6:	f3c3 0308 	ubfx	r3, r3, #0, #9
    1bea:	b29b      	uxth	r3, r3
    1bec:	4618      	mov	r0, r3
    1bee:	370c      	adds	r7, #12
    1bf0:	46bd      	mov	sp, r7
    1bf2:	f85d 7b04 	ldr.w	r7, [sp], #4
    1bf6:	4770      	bx	lr

00001bf8 <USART_SendBreak>:
    1bf8:	b480      	push	{r7}
    1bfa:	b083      	sub	sp, #12
    1bfc:	af00      	add	r7, sp, #0
    1bfe:	6078      	str	r0, [r7, #4]
    1c00:	687b      	ldr	r3, [r7, #4]
    1c02:	899b      	ldrh	r3, [r3, #12]
    1c04:	b29b      	uxth	r3, r3
    1c06:	f043 0301 	orr.w	r3, r3, #1
    1c0a:	b29a      	uxth	r2, r3
    1c0c:	687b      	ldr	r3, [r7, #4]
    1c0e:	819a      	strh	r2, [r3, #12]
    1c10:	370c      	adds	r7, #12
    1c12:	46bd      	mov	sp, r7
    1c14:	f85d 7b04 	ldr.w	r7, [sp], #4
    1c18:	4770      	bx	lr
    1c1a:	bf00      	nop

00001c1c <USART_SetGuardTime>:
    1c1c:	b480      	push	{r7}
    1c1e:	b083      	sub	sp, #12
    1c20:	af00      	add	r7, sp, #0
    1c22:	6078      	str	r0, [r7, #4]
    1c24:	460b      	mov	r3, r1
    1c26:	70fb      	strb	r3, [r7, #3]
    1c28:	687b      	ldr	r3, [r7, #4]
    1c2a:	8b1b      	ldrh	r3, [r3, #24]
    1c2c:	b29b      	uxth	r3, r3
    1c2e:	b2db      	uxtb	r3, r3
    1c30:	b29a      	uxth	r2, r3
    1c32:	687b      	ldr	r3, [r7, #4]
    1c34:	831a      	strh	r2, [r3, #24]
    1c36:	687b      	ldr	r3, [r7, #4]
    1c38:	8b1b      	ldrh	r3, [r3, #24]
    1c3a:	b29a      	uxth	r2, r3
    1c3c:	78fb      	ldrb	r3, [r7, #3]
    1c3e:	b29b      	uxth	r3, r3
    1c40:	021b      	lsls	r3, r3, #8
    1c42:	b29b      	uxth	r3, r3
    1c44:	4313      	orrs	r3, r2
    1c46:	b29a      	uxth	r2, r3
    1c48:	687b      	ldr	r3, [r7, #4]
    1c4a:	831a      	strh	r2, [r3, #24]
    1c4c:	370c      	adds	r7, #12
    1c4e:	46bd      	mov	sp, r7
    1c50:	f85d 7b04 	ldr.w	r7, [sp], #4
    1c54:	4770      	bx	lr
    1c56:	bf00      	nop

00001c58 <USART_SetPrescaler>:
    1c58:	b480      	push	{r7}
    1c5a:	b083      	sub	sp, #12
    1c5c:	af00      	add	r7, sp, #0
    1c5e:	6078      	str	r0, [r7, #4]
    1c60:	460b      	mov	r3, r1
    1c62:	70fb      	strb	r3, [r7, #3]
    1c64:	687b      	ldr	r3, [r7, #4]
    1c66:	8b1b      	ldrh	r3, [r3, #24]
    1c68:	b29b      	uxth	r3, r3
    1c6a:	f023 03ff 	bic.w	r3, r3, #255	; 0xff
    1c6e:	b29a      	uxth	r2, r3
    1c70:	687b      	ldr	r3, [r7, #4]
    1c72:	831a      	strh	r2, [r3, #24]
    1c74:	687b      	ldr	r3, [r7, #4]
    1c76:	8b1b      	ldrh	r3, [r3, #24]
    1c78:	b29a      	uxth	r2, r3
    1c7a:	78fb      	ldrb	r3, [r7, #3]
    1c7c:	b29b      	uxth	r3, r3
    1c7e:	4313      	orrs	r3, r2
    1c80:	b29a      	uxth	r2, r3
    1c82:	687b      	ldr	r3, [r7, #4]
    1c84:	831a      	strh	r2, [r3, #24]
    1c86:	370c      	adds	r7, #12
    1c88:	46bd      	mov	sp, r7
    1c8a:	f85d 7b04 	ldr.w	r7, [sp], #4
    1c8e:	4770      	bx	lr

00001c90 <USART_SmartCardCmd>:
    1c90:	b480      	push	{r7}
    1c92:	b083      	sub	sp, #12
    1c94:	af00      	add	r7, sp, #0
    1c96:	6078      	str	r0, [r7, #4]
    1c98:	460b      	mov	r3, r1
    1c9a:	70fb      	strb	r3, [r7, #3]
    1c9c:	78fb      	ldrb	r3, [r7, #3]
    1c9e:	2b00      	cmp	r3, #0
    1ca0:	d008      	beq.n	1cb4 <USART_SmartCardCmd+0x24>
    1ca2:	687b      	ldr	r3, [r7, #4]
    1ca4:	8a9b      	ldrh	r3, [r3, #20]
    1ca6:	b29b      	uxth	r3, r3
    1ca8:	f043 0320 	orr.w	r3, r3, #32
    1cac:	b29a      	uxth	r2, r3
    1cae:	687b      	ldr	r3, [r7, #4]
    1cb0:	829a      	strh	r2, [r3, #20]
    1cb2:	e007      	b.n	1cc4 <USART_SmartCardCmd+0x34>
    1cb4:	687b      	ldr	r3, [r7, #4]
    1cb6:	8a9b      	ldrh	r3, [r3, #20]
    1cb8:	b29b      	uxth	r3, r3
    1cba:	f023 0320 	bic.w	r3, r3, #32
    1cbe:	b29a      	uxth	r2, r3
    1cc0:	687b      	ldr	r3, [r7, #4]
    1cc2:	829a      	strh	r2, [r3, #20]
    1cc4:	370c      	adds	r7, #12
    1cc6:	46bd      	mov	sp, r7
    1cc8:	f85d 7b04 	ldr.w	r7, [sp], #4
    1ccc:	4770      	bx	lr
    1cce:	bf00      	nop

00001cd0 <USART_SmartCardNACKCmd>:
    1cd0:	b480      	push	{r7}
    1cd2:	b083      	sub	sp, #12
    1cd4:	af00      	add	r7, sp, #0
    1cd6:	6078      	str	r0, [r7, #4]
    1cd8:	460b      	mov	r3, r1
    1cda:	70fb      	strb	r3, [r7, #3]
    1cdc:	78fb      	ldrb	r3, [r7, #3]
    1cde:	2b00      	cmp	r3, #0
    1ce0:	d008      	beq.n	1cf4 <USART_SmartCardNACKCmd+0x24>
    1ce2:	687b      	ldr	r3, [r7, #4]
    1ce4:	8a9b      	ldrh	r3, [r3, #20]
    1ce6:	b29b      	uxth	r3, r3
    1ce8:	f043 0310 	orr.w	r3, r3, #16
    1cec:	b29a      	uxth	r2, r3
    1cee:	687b      	ldr	r3, [r7, #4]
    1cf0:	829a      	strh	r2, [r3, #20]
    1cf2:	e007      	b.n	1d04 <USART_SmartCardNACKCmd+0x34>
    1cf4:	687b      	ldr	r3, [r7, #4]
    1cf6:	8a9b      	ldrh	r3, [r3, #20]
    1cf8:	b29b      	uxth	r3, r3
    1cfa:	f023 0310 	bic.w	r3, r3, #16
    1cfe:	b29a      	uxth	r2, r3
    1d00:	687b      	ldr	r3, [r7, #4]
    1d02:	829a      	strh	r2, [r3, #20]
    1d04:	370c      	adds	r7, #12
    1d06:	46bd      	mov	sp, r7
    1d08:	f85d 7b04 	ldr.w	r7, [sp], #4
    1d0c:	4770      	bx	lr
    1d0e:	bf00      	nop

00001d10 <USART_HalfDuplexCmd>:
    1d10:	b480      	push	{r7}
    1d12:	b083      	sub	sp, #12
    1d14:	af00      	add	r7, sp, #0
    1d16:	6078      	str	r0, [r7, #4]
    1d18:	460b      	mov	r3, r1
    1d1a:	70fb      	strb	r3, [r7, #3]
    1d1c:	78fb      	ldrb	r3, [r7, #3]
    1d1e:	2b00      	cmp	r3, #0
    1d20:	d008      	beq.n	1d34 <USART_HalfDuplexCmd+0x24>
    1d22:	687b      	ldr	r3, [r7, #4]
    1d24:	8a9b      	ldrh	r3, [r3, #20]
    1d26:	b29b      	uxth	r3, r3
    1d28:	f043 0308 	orr.w	r3, r3, #8
    1d2c:	b29a      	uxth	r2, r3
    1d2e:	687b      	ldr	r3, [r7, #4]
    1d30:	829a      	strh	r2, [r3, #20]
    1d32:	e007      	b.n	1d44 <USART_HalfDuplexCmd+0x34>
    1d34:	687b      	ldr	r3, [r7, #4]
    1d36:	8a9b      	ldrh	r3, [r3, #20]
    1d38:	b29b      	uxth	r3, r3
    1d3a:	f023 0308 	bic.w	r3, r3, #8
    1d3e:	b29a      	uxth	r2, r3
    1d40:	687b      	ldr	r3, [r7, #4]
    1d42:	829a      	strh	r2, [r3, #20]
    1d44:	370c      	adds	r7, #12
    1d46:	46bd      	mov	sp, r7
    1d48:	f85d 7b04 	ldr.w	r7, [sp], #4
    1d4c:	4770      	bx	lr
    1d4e:	bf00      	nop

00001d50 <USART_OverSampling8Cmd>:
    1d50:	b480      	push	{r7}
    1d52:	b083      	sub	sp, #12
    1d54:	af00      	add	r7, sp, #0
    1d56:	6078      	str	r0, [r7, #4]
    1d58:	460b      	mov	r3, r1
    1d5a:	70fb      	strb	r3, [r7, #3]
    1d5c:	78fb      	ldrb	r3, [r7, #3]
    1d5e:	2b00      	cmp	r3, #0
    1d60:	d00a      	beq.n	1d78 <USART_OverSampling8Cmd+0x28>
    1d62:	687b      	ldr	r3, [r7, #4]
    1d64:	899b      	ldrh	r3, [r3, #12]
    1d66:	b29b      	uxth	r3, r3
    1d68:	ea6f 4343 	mvn.w	r3, r3, lsl #17
    1d6c:	ea6f 4353 	mvn.w	r3, r3, lsr #17
    1d70:	b29a      	uxth	r2, r3
    1d72:	687b      	ldr	r3, [r7, #4]
    1d74:	819a      	strh	r2, [r3, #12]
    1d76:	e007      	b.n	1d88 <USART_OverSampling8Cmd+0x38>
    1d78:	687b      	ldr	r3, [r7, #4]
    1d7a:	899b      	ldrh	r3, [r3, #12]
    1d7c:	b29b      	uxth	r3, r3
    1d7e:	f3c3 030e 	ubfx	r3, r3, #0, #15
    1d82:	b29a      	uxth	r2, r3
    1d84:	687b      	ldr	r3, [r7, #4]
    1d86:	819a      	strh	r2, [r3, #12]
    1d88:	370c      	adds	r7, #12
    1d8a:	46bd      	mov	sp, r7
    1d8c:	f85d 7b04 	ldr.w	r7, [sp], #4
    1d90:	4770      	bx	lr
    1d92:	bf00      	nop

00001d94 <USART_OneBitMethodCmd>:
    1d94:	b480      	push	{r7}
    1d96:	b083      	sub	sp, #12
    1d98:	af00      	add	r7, sp, #0
    1d9a:	6078      	str	r0, [r7, #4]
    1d9c:	460b      	mov	r3, r1
    1d9e:	70fb      	strb	r3, [r7, #3]
    1da0:	78fb      	ldrb	r3, [r7, #3]
    1da2:	2b00      	cmp	r3, #0
    1da4:	d008      	beq.n	1db8 <USART_OneBitMethodCmd+0x24>
    1da6:	687b      	ldr	r3, [r7, #4]
    1da8:	8a9b      	ldrh	r3, [r3, #20]
    1daa:	b29b      	uxth	r3, r3
    1dac:	f443 6300 	orr.w	r3, r3, #2048	; 0x800
    1db0:	b29a      	uxth	r2, r3
    1db2:	687b      	ldr	r3, [r7, #4]
    1db4:	829a      	strh	r2, [r3, #20]
    1db6:	e007      	b.n	1dc8 <USART_OneBitMethodCmd+0x34>
    1db8:	687b      	ldr	r3, [r7, #4]
    1dba:	8a9b      	ldrh	r3, [r3, #20]
    1dbc:	b29b      	uxth	r3, r3
    1dbe:	f423 6300 	bic.w	r3, r3, #2048	; 0x800
    1dc2:	b29a      	uxth	r2, r3
    1dc4:	687b      	ldr	r3, [r7, #4]
    1dc6:	829a      	strh	r2, [r3, #20]
    1dc8:	370c      	adds	r7, #12
    1dca:	46bd      	mov	sp, r7
    1dcc:	f85d 7b04 	ldr.w	r7, [sp], #4
    1dd0:	4770      	bx	lr
    1dd2:	bf00      	nop

00001dd4 <USART_IrDAConfig>:
    1dd4:	b480      	push	{r7}
    1dd6:	b083      	sub	sp, #12
    1dd8:	af00      	add	r7, sp, #0
    1dda:	6078      	str	r0, [r7, #4]
    1ddc:	460b      	mov	r3, r1
    1dde:	807b      	strh	r3, [r7, #2]
    1de0:	687b      	ldr	r3, [r7, #4]
    1de2:	8a9b      	ldrh	r3, [r3, #20]
    1de4:	b29b      	uxth	r3, r3
    1de6:	f023 0304 	bic.w	r3, r3, #4
    1dea:	b29a      	uxth	r2, r3
    1dec:	687b      	ldr	r3, [r7, #4]
    1dee:	829a      	strh	r2, [r3, #20]
    1df0:	687b      	ldr	r3, [r7, #4]
    1df2:	8a9b      	ldrh	r3, [r3, #20]
    1df4:	b29a      	uxth	r2, r3
    1df6:	887b      	ldrh	r3, [r7, #2]
    1df8:	4313      	orrs	r3, r2
    1dfa:	b29a      	uxth	r2, r3
    1dfc:	687b      	ldr	r3, [r7, #4]
    1dfe:	829a      	strh	r2, [r3, #20]
    1e00:	370c      	adds	r7, #12
    1e02:	46bd      	mov	sp, r7
    1e04:	f85d 7b04 	ldr.w	r7, [sp], #4
    1e08:	4770      	bx	lr
    1e0a:	bf00      	nop

00001e0c <USART_IrDACmd>:
    1e0c:	b480      	push	{r7}
    1e0e:	b083      	sub	sp, #12
    1e10:	af00      	add	r7, sp, #0
    1e12:	6078      	str	r0, [r7, #4]
    1e14:	460b      	mov	r3, r1
    1e16:	70fb      	strb	r3, [r7, #3]
    1e18:	78fb      	ldrb	r3, [r7, #3]
    1e1a:	2b00      	cmp	r3, #0
    1e1c:	d008      	beq.n	1e30 <USART_IrDACmd+0x24>
    1e1e:	687b      	ldr	r3, [r7, #4]
    1e20:	8a9b      	ldrh	r3, [r3, #20]
    1e22:	b29b      	uxth	r3, r3
    1e24:	f043 0302 	orr.w	r3, r3, #2
    1e28:	b29a      	uxth	r2, r3
    1e2a:	687b      	ldr	r3, [r7, #4]
    1e2c:	829a      	strh	r2, [r3, #20]
    1e2e:	e007      	b.n	1e40 <USART_IrDACmd+0x34>
    1e30:	687b      	ldr	r3, [r7, #4]
    1e32:	8a9b      	ldrh	r3, [r3, #20]
    1e34:	b29b      	uxth	r3, r3
    1e36:	f023 0302 	bic.w	r3, r3, #2
    1e3a:	b29a      	uxth	r2, r3
    1e3c:	687b      	ldr	r3, [r7, #4]
    1e3e:	829a      	strh	r2, [r3, #20]
    1e40:	370c      	adds	r7, #12
    1e42:	46bd      	mov	sp, r7
    1e44:	f85d 7b04 	ldr.w	r7, [sp], #4
    1e48:	4770      	bx	lr
    1e4a:	bf00      	nop

00001e4c <USART_GetFlagStatus>:
    1e4c:	b480      	push	{r7}
    1e4e:	b085      	sub	sp, #20
    1e50:	af00      	add	r7, sp, #0
    1e52:	6078      	str	r0, [r7, #4]
    1e54:	460b      	mov	r3, r1
    1e56:	807b      	strh	r3, [r7, #2]
    1e58:	2300      	movs	r3, #0
    1e5a:	73fb      	strb	r3, [r7, #15]
    1e5c:	687b      	ldr	r3, [r7, #4]
    1e5e:	881b      	ldrh	r3, [r3, #0]
    1e60:	b29a      	uxth	r2, r3
    1e62:	887b      	ldrh	r3, [r7, #2]
    1e64:	4013      	ands	r3, r2
    1e66:	b29b      	uxth	r3, r3
    1e68:	2b00      	cmp	r3, #0
    1e6a:	d002      	beq.n	1e72 <USART_GetFlagStatus+0x26>
    1e6c:	2301      	movs	r3, #1
    1e6e:	73fb      	strb	r3, [r7, #15]
    1e70:	e001      	b.n	1e76 <USART_GetFlagStatus+0x2a>
    1e72:	2300      	movs	r3, #0
    1e74:	73fb      	strb	r3, [r7, #15]
    1e76:	7bfb      	ldrb	r3, [r7, #15]
    1e78:	4618      	mov	r0, r3
    1e7a:	3714      	adds	r7, #20
    1e7c:	46bd      	mov	sp, r7
    1e7e:	f85d 7b04 	ldr.w	r7, [sp], #4
    1e82:	4770      	bx	lr

00001e84 <USART_ClearFlag>:
    1e84:	b480      	push	{r7}
    1e86:	b083      	sub	sp, #12
    1e88:	af00      	add	r7, sp, #0
    1e8a:	6078      	str	r0, [r7, #4]
    1e8c:	460b      	mov	r3, r1
    1e8e:	807b      	strh	r3, [r7, #2]
    1e90:	887b      	ldrh	r3, [r7, #2]
    1e92:	43db      	mvns	r3, r3
    1e94:	b29a      	uxth	r2, r3
    1e96:	687b      	ldr	r3, [r7, #4]
    1e98:	801a      	strh	r2, [r3, #0]
    1e9a:	370c      	adds	r7, #12
    1e9c:	46bd      	mov	sp, r7
    1e9e:	f85d 7b04 	ldr.w	r7, [sp], #4
    1ea2:	4770      	bx	lr

00001ea4 <USART_GetITStatus>:
    1ea4:	b480      	push	{r7}
    1ea6:	b087      	sub	sp, #28
    1ea8:	af00      	add	r7, sp, #0
    1eaa:	6078      	str	r0, [r7, #4]
    1eac:	460b      	mov	r3, r1
    1eae:	807b      	strh	r3, [r7, #2]
    1eb0:	2300      	movs	r3, #0
    1eb2:	60fb      	str	r3, [r7, #12]
    1eb4:	2300      	movs	r3, #0
    1eb6:	617b      	str	r3, [r7, #20]
    1eb8:	2300      	movs	r3, #0
    1eba:	60bb      	str	r3, [r7, #8]
    1ebc:	2300      	movs	r3, #0
    1ebe:	74fb      	strb	r3, [r7, #19]
    1ec0:	887b      	ldrh	r3, [r7, #2]
    1ec2:	b2db      	uxtb	r3, r3
    1ec4:	095b      	lsrs	r3, r3, #5
    1ec6:	b2db      	uxtb	r3, r3
    1ec8:	60bb      	str	r3, [r7, #8]
    1eca:	887b      	ldrh	r3, [r7, #2]
    1ecc:	f003 031f 	and.w	r3, r3, #31
    1ed0:	617b      	str	r3, [r7, #20]
    1ed2:	697b      	ldr	r3, [r7, #20]
    1ed4:	2201      	movs	r2, #1
    1ed6:	fa02 f303 	lsl.w	r3, r2, r3
    1eda:	617b      	str	r3, [r7, #20]
    1edc:	68bb      	ldr	r3, [r7, #8]
    1ede:	2b01      	cmp	r3, #1
    1ee0:	d106      	bne.n	1ef0 <USART_GetITStatus+0x4c>
    1ee2:	687b      	ldr	r3, [r7, #4]
    1ee4:	899b      	ldrh	r3, [r3, #12]
    1ee6:	b29b      	uxth	r3, r3
    1ee8:	697a      	ldr	r2, [r7, #20]
    1eea:	4013      	ands	r3, r2
    1eec:	617b      	str	r3, [r7, #20]
    1eee:	e00f      	b.n	1f10 <USART_GetITStatus+0x6c>
    1ef0:	68bb      	ldr	r3, [r7, #8]
    1ef2:	2b02      	cmp	r3, #2
    1ef4:	d106      	bne.n	1f04 <USART_GetITStatus+0x60>
    1ef6:	687b      	ldr	r3, [r7, #4]
    1ef8:	8a1b      	ldrh	r3, [r3, #16]
    1efa:	b29b      	uxth	r3, r3
    1efc:	697a      	ldr	r2, [r7, #20]
    1efe:	4013      	ands	r3, r2
    1f00:	617b      	str	r3, [r7, #20]
    1f02:	e005      	b.n	1f10 <USART_GetITStatus+0x6c>
    1f04:	687b      	ldr	r3, [r7, #4]
    1f06:	8a9b      	ldrh	r3, [r3, #20]
    1f08:	b29b      	uxth	r3, r3
    1f0a:	697a      	ldr	r2, [r7, #20]
    1f0c:	4013      	ands	r3, r2
    1f0e:	617b      	str	r3, [r7, #20]
    1f10:	887b      	ldrh	r3, [r7, #2]
    1f12:	0a1b      	lsrs	r3, r3, #8
    1f14:	b29b      	uxth	r3, r3
    1f16:	60fb      	str	r3, [r7, #12]
    1f18:	68fb      	ldr	r3, [r7, #12]
    1f1a:	2201      	movs	r2, #1
    1f1c:	fa02 f303 	lsl.w	r3, r2, r3
    1f20:	60fb      	str	r3, [r7, #12]
    1f22:	687b      	ldr	r3, [r7, #4]
    1f24:	881b      	ldrh	r3, [r3, #0]
    1f26:	b29b      	uxth	r3, r3
    1f28:	68fa      	ldr	r2, [r7, #12]
    1f2a:	4013      	ands	r3, r2
    1f2c:	60fb      	str	r3, [r7, #12]
    1f2e:	697b      	ldr	r3, [r7, #20]
    1f30:	2b00      	cmp	r3, #0
    1f32:	d005      	beq.n	1f40 <USART_GetITStatus+0x9c>
    1f34:	68fb      	ldr	r3, [r7, #12]
    1f36:	2b00      	cmp	r3, #0
    1f38:	d002      	beq.n	1f40 <USART_GetITStatus+0x9c>
    1f3a:	2301      	movs	r3, #1
    1f3c:	74fb      	strb	r3, [r7, #19]
    1f3e:	e001      	b.n	1f44 <USART_GetITStatus+0xa0>
    1f40:	2300      	movs	r3, #0
    1f42:	74fb      	strb	r3, [r7, #19]
    1f44:	7cfb      	ldrb	r3, [r7, #19]
    1f46:	4618      	mov	r0, r3
    1f48:	371c      	adds	r7, #28
    1f4a:	46bd      	mov	sp, r7
    1f4c:	f85d 7b04 	ldr.w	r7, [sp], #4
    1f50:	4770      	bx	lr
    1f52:	bf00      	nop

00001f54 <USART_ClearITPendingBit>:
    1f54:	b480      	push	{r7}
    1f56:	b085      	sub	sp, #20
    1f58:	af00      	add	r7, sp, #0
    1f5a:	6078      	str	r0, [r7, #4]
    1f5c:	460b      	mov	r3, r1
    1f5e:	807b      	strh	r3, [r7, #2]
    1f60:	2300      	movs	r3, #0
    1f62:	81fb      	strh	r3, [r7, #14]
    1f64:	2300      	movs	r3, #0
    1f66:	81bb      	strh	r3, [r7, #12]
    1f68:	887b      	ldrh	r3, [r7, #2]
    1f6a:	0a1b      	lsrs	r3, r3, #8
    1f6c:	81fb      	strh	r3, [r7, #14]
    1f6e:	89fb      	ldrh	r3, [r7, #14]
    1f70:	2201      	movs	r2, #1
    1f72:	fa02 f303 	lsl.w	r3, r2, r3
    1f76:	81bb      	strh	r3, [r7, #12]
    1f78:	89bb      	ldrh	r3, [r7, #12]
    1f7a:	43db      	mvns	r3, r3
    1f7c:	b29a      	uxth	r2, r3
    1f7e:	687b      	ldr	r3, [r7, #4]
    1f80:	801a      	strh	r2, [r3, #0]
    1f82:	3714      	adds	r7, #20
    1f84:	46bd      	mov	sp, r7
    1f86:	f85d 7b04 	ldr.w	r7, [sp], #4
    1f8a:	4770      	bx	lr

00001f8c <EXTI_DeInit>:
    1f8c:	b480      	push	{r7}
    1f8e:	af00      	add	r7, sp, #0
    1f90:	f44f 6380 	mov.w	r3, #1024	; 0x400
    1f94:	f2c4 0301 	movt	r3, #16385	; 0x4001
    1f98:	2200      	movs	r2, #0
    1f9a:	601a      	str	r2, [r3, #0]
    1f9c:	f44f 6380 	mov.w	r3, #1024	; 0x400
    1fa0:	f2c4 0301 	movt	r3, #16385	; 0x4001
    1fa4:	2200      	movs	r2, #0
    1fa6:	605a      	str	r2, [r3, #4]
    1fa8:	f44f 6380 	mov.w	r3, #1024	; 0x400
    1fac:	f2c4 0301 	movt	r3, #16385	; 0x4001
    1fb0:	2200      	movs	r2, #0
    1fb2:	609a      	str	r2, [r3, #8]
    1fb4:	f44f 6380 	mov.w	r3, #1024	; 0x400
    1fb8:	f2c4 0301 	movt	r3, #16385	; 0x4001
    1fbc:	2200      	movs	r2, #0
    1fbe:	60da      	str	r2, [r3, #12]
    1fc0:	f44f 6380 	mov.w	r3, #1024	; 0x400
    1fc4:	f2c4 0301 	movt	r3, #16385	; 0x4001
    1fc8:	f64f 72ff 	movw	r2, #65535	; 0xffff
    1fcc:	f2c0 020f 	movt	r2, #15
    1fd0:	615a      	str	r2, [r3, #20]
    1fd2:	46bd      	mov	sp, r7
    1fd4:	f85d 7b04 	ldr.w	r7, [sp], #4
    1fd8:	4770      	bx	lr
    1fda:	bf00      	nop

00001fdc <EXTI_Init>:
    1fdc:	b480      	push	{r7}
    1fde:	b085      	sub	sp, #20
    1fe0:	af00      	add	r7, sp, #0
    1fe2:	6078      	str	r0, [r7, #4]
    1fe4:	2300      	movs	r3, #0
    1fe6:	60fb      	str	r3, [r7, #12]
    1fe8:	f44f 6380 	mov.w	r3, #1024	; 0x400
    1fec:	f2c4 0301 	movt	r3, #16385	; 0x4001
    1ff0:	60fb      	str	r3, [r7, #12]
    1ff2:	687b      	ldr	r3, [r7, #4]
    1ff4:	799b      	ldrb	r3, [r3, #6]
    1ff6:	2b00      	cmp	r3, #0
    1ff8:	d074      	beq.n	20e4 <EXTI_Init+0x108>
    1ffa:	f44f 6380 	mov.w	r3, #1024	; 0x400
    1ffe:	f2c4 0301 	movt	r3, #16385	; 0x4001
    2002:	f44f 6280 	mov.w	r2, #1024	; 0x400
    2006:	f2c4 0201 	movt	r2, #16385	; 0x4001
    200a:	6811      	ldr	r1, [r2, #0]
    200c:	687a      	ldr	r2, [r7, #4]
    200e:	6812      	ldr	r2, [r2, #0]
    2010:	43d2      	mvns	r2, r2
    2012:	400a      	ands	r2, r1
    2014:	601a      	str	r2, [r3, #0]
    2016:	f44f 6380 	mov.w	r3, #1024	; 0x400
    201a:	f2c4 0301 	movt	r3, #16385	; 0x4001
    201e:	f44f 6280 	mov.w	r2, #1024	; 0x400
    2022:	f2c4 0201 	movt	r2, #16385	; 0x4001
    2026:	6851      	ldr	r1, [r2, #4]
    2028:	687a      	ldr	r2, [r7, #4]
    202a:	6812      	ldr	r2, [r2, #0]
    202c:	43d2      	mvns	r2, r2
    202e:	400a      	ands	r2, r1
    2030:	605a      	str	r2, [r3, #4]
    2032:	687b      	ldr	r3, [r7, #4]
    2034:	791b      	ldrb	r3, [r3, #4]
    2036:	68fa      	ldr	r2, [r7, #12]
    2038:	4413      	add	r3, r2
    203a:	60fb      	str	r3, [r7, #12]
    203c:	68fb      	ldr	r3, [r7, #12]
    203e:	68fa      	ldr	r2, [r7, #12]
    2040:	6811      	ldr	r1, [r2, #0]
    2042:	687a      	ldr	r2, [r7, #4]
    2044:	6812      	ldr	r2, [r2, #0]
    2046:	430a      	orrs	r2, r1
    2048:	601a      	str	r2, [r3, #0]
    204a:	f44f 6380 	mov.w	r3, #1024	; 0x400
    204e:	f2c4 0301 	movt	r3, #16385	; 0x4001
    2052:	f44f 6280 	mov.w	r2, #1024	; 0x400
    2056:	f2c4 0201 	movt	r2, #16385	; 0x4001
    205a:	6891      	ldr	r1, [r2, #8]
    205c:	687a      	ldr	r2, [r7, #4]
    205e:	6812      	ldr	r2, [r2, #0]
    2060:	43d2      	mvns	r2, r2
    2062:	400a      	ands	r2, r1
    2064:	609a      	str	r2, [r3, #8]
    2066:	f44f 6380 	mov.w	r3, #1024	; 0x400
    206a:	f2c4 0301 	movt	r3, #16385	; 0x4001
    206e:	f44f 6280 	mov.w	r2, #1024	; 0x400
    2072:	f2c4 0201 	movt	r2, #16385	; 0x4001
    2076:	68d1      	ldr	r1, [r2, #12]
    2078:	687a      	ldr	r2, [r7, #4]
    207a:	6812      	ldr	r2, [r2, #0]
    207c:	43d2      	mvns	r2, r2
    207e:	400a      	ands	r2, r1
    2080:	60da      	str	r2, [r3, #12]
    2082:	687b      	ldr	r3, [r7, #4]
    2084:	795b      	ldrb	r3, [r3, #5]
    2086:	2b10      	cmp	r3, #16
    2088:	d11a      	bne.n	20c0 <EXTI_Init+0xe4>
    208a:	f44f 6380 	mov.w	r3, #1024	; 0x400
    208e:	f2c4 0301 	movt	r3, #16385	; 0x4001
    2092:	f44f 6280 	mov.w	r2, #1024	; 0x400
    2096:	f2c4 0201 	movt	r2, #16385	; 0x4001
    209a:	6891      	ldr	r1, [r2, #8]
    209c:	687a      	ldr	r2, [r7, #4]
    209e:	6812      	ldr	r2, [r2, #0]
    20a0:	430a      	orrs	r2, r1
    20a2:	609a      	str	r2, [r3, #8]
    20a4:	f44f 6380 	mov.w	r3, #1024	; 0x400
    20a8:	f2c4 0301 	movt	r3, #16385	; 0x4001
    20ac:	f44f 6280 	mov.w	r2, #1024	; 0x400
    20b0:	f2c4 0201 	movt	r2, #16385	; 0x4001
    20b4:	68d1      	ldr	r1, [r2, #12]
    20b6:	687a      	ldr	r2, [r7, #4]
    20b8:	6812      	ldr	r2, [r2, #0]
    20ba:	430a      	orrs	r2, r1
    20bc:	60da      	str	r2, [r3, #12]
    20be:	e01e      	b.n	20fe <EXTI_Init+0x122>
    20c0:	f44f 6380 	mov.w	r3, #1024	; 0x400
    20c4:	f2c4 0301 	movt	r3, #16385	; 0x4001
    20c8:	60fb      	str	r3, [r7, #12]
    20ca:	687b      	ldr	r3, [r7, #4]
    20cc:	795b      	ldrb	r3, [r3, #5]
    20ce:	68fa      	ldr	r2, [r7, #12]
    20d0:	4413      	add	r3, r2
    20d2:	60fb      	str	r3, [r7, #12]
    20d4:	68fb      	ldr	r3, [r7, #12]
    20d6:	68fa      	ldr	r2, [r7, #12]
    20d8:	6811      	ldr	r1, [r2, #0]
    20da:	687a      	ldr	r2, [r7, #4]
    20dc:	6812      	ldr	r2, [r2, #0]
    20de:	430a      	orrs	r2, r1
    20e0:	601a      	str	r2, [r3, #0]
    20e2:	e00c      	b.n	20fe <EXTI_Init+0x122>
    20e4:	687b      	ldr	r3, [r7, #4]
    20e6:	791b      	ldrb	r3, [r3, #4]
    20e8:	68fa      	ldr	r2, [r7, #12]
    20ea:	4413      	add	r3, r2
    20ec:	60fb      	str	r3, [r7, #12]
    20ee:	68fb      	ldr	r3, [r7, #12]
    20f0:	68fa      	ldr	r2, [r7, #12]
    20f2:	6811      	ldr	r1, [r2, #0]
    20f4:	687a      	ldr	r2, [r7, #4]
    20f6:	6812      	ldr	r2, [r2, #0]
    20f8:	43d2      	mvns	r2, r2
    20fa:	400a      	ands	r2, r1
    20fc:	601a      	str	r2, [r3, #0]
    20fe:	3714      	adds	r7, #20
    2100:	46bd      	mov	sp, r7
    2102:	f85d 7b04 	ldr.w	r7, [sp], #4
    2106:	4770      	bx	lr

00002108 <EXTI_StructInit>:
    2108:	b480      	push	{r7}
    210a:	b083      	sub	sp, #12
    210c:	af00      	add	r7, sp, #0
    210e:	6078      	str	r0, [r7, #4]
    2110:	687b      	ldr	r3, [r7, #4]
    2112:	2200      	movs	r2, #0
    2114:	601a      	str	r2, [r3, #0]
    2116:	687b      	ldr	r3, [r7, #4]
    2118:	2200      	movs	r2, #0
    211a:	711a      	strb	r2, [r3, #4]
    211c:	687b      	ldr	r3, [r7, #4]
    211e:	220c      	movs	r2, #12
    2120:	715a      	strb	r2, [r3, #5]
    2122:	687b      	ldr	r3, [r7, #4]
    2124:	2200      	movs	r2, #0
    2126:	719a      	strb	r2, [r3, #6]
    2128:	370c      	adds	r7, #12
    212a:	46bd      	mov	sp, r7
    212c:	f85d 7b04 	ldr.w	r7, [sp], #4
    2130:	4770      	bx	lr
    2132:	bf00      	nop

00002134 <EXTI_GenerateSWInterrupt>:
    2134:	b480      	push	{r7}
    2136:	b083      	sub	sp, #12
    2138:	af00      	add	r7, sp, #0
    213a:	6078      	str	r0, [r7, #4]
    213c:	f44f 6380 	mov.w	r3, #1024	; 0x400
    2140:	f2c4 0301 	movt	r3, #16385	; 0x4001
    2144:	f44f 6280 	mov.w	r2, #1024	; 0x400
    2148:	f2c4 0201 	movt	r2, #16385	; 0x4001
    214c:	6911      	ldr	r1, [r2, #16]
    214e:	687a      	ldr	r2, [r7, #4]
    2150:	430a      	orrs	r2, r1
    2152:	611a      	str	r2, [r3, #16]
    2154:	370c      	adds	r7, #12
    2156:	46bd      	mov	sp, r7
    2158:	f85d 7b04 	ldr.w	r7, [sp], #4
    215c:	4770      	bx	lr
    215e:	bf00      	nop

00002160 <EXTI_GetFlagStatus>:
    2160:	b480      	push	{r7}
    2162:	b085      	sub	sp, #20
    2164:	af00      	add	r7, sp, #0
    2166:	6078      	str	r0, [r7, #4]
    2168:	2300      	movs	r3, #0
    216a:	73fb      	strb	r3, [r7, #15]
    216c:	f44f 6380 	mov.w	r3, #1024	; 0x400
    2170:	f2c4 0301 	movt	r3, #16385	; 0x4001
    2174:	695a      	ldr	r2, [r3, #20]
    2176:	687b      	ldr	r3, [r7, #4]
    2178:	4013      	ands	r3, r2
    217a:	2b00      	cmp	r3, #0
    217c:	d002      	beq.n	2184 <EXTI_GetFlagStatus+0x24>
    217e:	2301      	movs	r3, #1
    2180:	73fb      	strb	r3, [r7, #15]
    2182:	e001      	b.n	2188 <EXTI_GetFlagStatus+0x28>
    2184:	2300      	movs	r3, #0
    2186:	73fb      	strb	r3, [r7, #15]
    2188:	7bfb      	ldrb	r3, [r7, #15]
    218a:	4618      	mov	r0, r3
    218c:	3714      	adds	r7, #20
    218e:	46bd      	mov	sp, r7
    2190:	f85d 7b04 	ldr.w	r7, [sp], #4
    2194:	4770      	bx	lr
    2196:	bf00      	nop

00002198 <EXTI_ClearFlag>:
    2198:	b480      	push	{r7}
    219a:	b083      	sub	sp, #12
    219c:	af00      	add	r7, sp, #0
    219e:	6078      	str	r0, [r7, #4]
    21a0:	f44f 6380 	mov.w	r3, #1024	; 0x400
    21a4:	f2c4 0301 	movt	r3, #16385	; 0x4001
    21a8:	687a      	ldr	r2, [r7, #4]
    21aa:	615a      	str	r2, [r3, #20]
    21ac:	370c      	adds	r7, #12
    21ae:	46bd      	mov	sp, r7
    21b0:	f85d 7b04 	ldr.w	r7, [sp], #4
    21b4:	4770      	bx	lr
    21b6:	bf00      	nop

000021b8 <EXTI_GetITStatus>:
    21b8:	b480      	push	{r7}
    21ba:	b085      	sub	sp, #20
    21bc:	af00      	add	r7, sp, #0
    21be:	6078      	str	r0, [r7, #4]
    21c0:	2300      	movs	r3, #0
    21c2:	73fb      	strb	r3, [r7, #15]
    21c4:	2300      	movs	r3, #0
    21c6:	60bb      	str	r3, [r7, #8]
    21c8:	f44f 6380 	mov.w	r3, #1024	; 0x400
    21cc:	f2c4 0301 	movt	r3, #16385	; 0x4001
    21d0:	681a      	ldr	r2, [r3, #0]
    21d2:	687b      	ldr	r3, [r7, #4]
    21d4:	4013      	ands	r3, r2
    21d6:	60bb      	str	r3, [r7, #8]
    21d8:	f44f 6380 	mov.w	r3, #1024	; 0x400
    21dc:	f2c4 0301 	movt	r3, #16385	; 0x4001
    21e0:	695a      	ldr	r2, [r3, #20]
    21e2:	687b      	ldr	r3, [r7, #4]
    21e4:	4013      	ands	r3, r2
    21e6:	2b00      	cmp	r3, #0
    21e8:	d005      	beq.n	21f6 <EXTI_GetITStatus+0x3e>
    21ea:	68bb      	ldr	r3, [r7, #8]
    21ec:	2b00      	cmp	r3, #0
    21ee:	d002      	beq.n	21f6 <EXTI_GetITStatus+0x3e>
    21f0:	2301      	movs	r3, #1
    21f2:	73fb      	strb	r3, [r7, #15]
    21f4:	e001      	b.n	21fa <EXTI_GetITStatus+0x42>
    21f6:	2300      	movs	r3, #0
    21f8:	73fb      	strb	r3, [r7, #15]
    21fa:	7bfb      	ldrb	r3, [r7, #15]
    21fc:	4618      	mov	r0, r3
    21fe:	3714      	adds	r7, #20
    2200:	46bd      	mov	sp, r7
    2202:	f85d 7b04 	ldr.w	r7, [sp], #4
    2206:	4770      	bx	lr

00002208 <EXTI_ClearITPendingBit>:
    2208:	b480      	push	{r7}
    220a:	b083      	sub	sp, #12
    220c:	af00      	add	r7, sp, #0
    220e:	6078      	str	r0, [r7, #4]
    2210:	f44f 6380 	mov.w	r3, #1024	; 0x400
    2214:	f2c4 0301 	movt	r3, #16385	; 0x4001
    2218:	687a      	ldr	r2, [r7, #4]
    221a:	615a      	str	r2, [r3, #20]
    221c:	370c      	adds	r7, #12
    221e:	46bd      	mov	sp, r7
    2220:	f85d 7b04 	ldr.w	r7, [sp], #4
    2224:	4770      	bx	lr
    2226:	bf00      	nop

00002228 <NVIC_PriorityGroupConfig>:
    2228:	b480      	push	{r7}
    222a:	b083      	sub	sp, #12
    222c:	af00      	add	r7, sp, #0
    222e:	6078      	str	r0, [r7, #4]
    2230:	f44f 436d 	mov.w	r3, #60672	; 0xed00
    2234:	f2ce 0300 	movt	r3, #57344	; 0xe000
    2238:	687a      	ldr	r2, [r7, #4]
    223a:	f042 62bf 	orr.w	r2, r2, #100139008	; 0x5f80000
    223e:	f442 3200 	orr.w	r2, r2, #131072	; 0x20000
    2242:	60da      	str	r2, [r3, #12]
    2244:	370c      	adds	r7, #12
    2246:	46bd      	mov	sp, r7
    2248:	f85d 7b04 	ldr.w	r7, [sp], #4
    224c:	4770      	bx	lr
    224e:	bf00      	nop

00002250 <NVIC_Init>:
    2250:	b480      	push	{r7}
    2252:	b087      	sub	sp, #28
    2254:	af00      	add	r7, sp, #0
    2256:	6078      	str	r0, [r7, #4]
    2258:	2300      	movs	r3, #0
    225a:	617b      	str	r3, [r7, #20]
    225c:	2300      	movs	r3, #0
    225e:	613b      	str	r3, [r7, #16]
    2260:	230f      	movs	r3, #15
    2262:	60fb      	str	r3, [r7, #12]
    2264:	687b      	ldr	r3, [r7, #4]
    2266:	78db      	ldrb	r3, [r3, #3]
    2268:	2b00      	cmp	r3, #0
    226a:	d042      	beq.n	22f2 <NVIC_Init+0xa2>
    226c:	f44f 436d 	mov.w	r3, #60672	; 0xed00
    2270:	f2ce 0300 	movt	r3, #57344	; 0xe000
    2274:	68db      	ldr	r3, [r3, #12]
    2276:	43db      	mvns	r3, r3
    2278:	f403 63e0 	and.w	r3, r3, #1792	; 0x700
    227c:	0a1b      	lsrs	r3, r3, #8
    227e:	617b      	str	r3, [r7, #20]
    2280:	697b      	ldr	r3, [r7, #20]
    2282:	f1c3 0304 	rsb	r3, r3, #4
    2286:	613b      	str	r3, [r7, #16]
    2288:	697b      	ldr	r3, [r7, #20]
    228a:	68fa      	ldr	r2, [r7, #12]
    228c:	fa22 f303 	lsr.w	r3, r2, r3
    2290:	60fb      	str	r3, [r7, #12]
    2292:	687b      	ldr	r3, [r7, #4]
    2294:	785b      	ldrb	r3, [r3, #1]
    2296:	461a      	mov	r2, r3
    2298:	693b      	ldr	r3, [r7, #16]
    229a:	fa02 f303 	lsl.w	r3, r2, r3
    229e:	617b      	str	r3, [r7, #20]
    22a0:	687b      	ldr	r3, [r7, #4]
    22a2:	789b      	ldrb	r3, [r3, #2]
    22a4:	461a      	mov	r2, r3
    22a6:	68fb      	ldr	r3, [r7, #12]
    22a8:	4013      	ands	r3, r2
    22aa:	697a      	ldr	r2, [r7, #20]
    22ac:	4313      	orrs	r3, r2
    22ae:	617b      	str	r3, [r7, #20]
    22b0:	697b      	ldr	r3, [r7, #20]
    22b2:	011b      	lsls	r3, r3, #4
    22b4:	617b      	str	r3, [r7, #20]
    22b6:	f44f 4361 	mov.w	r3, #57600	; 0xe100
    22ba:	f2ce 0300 	movt	r3, #57344	; 0xe000
    22be:	687a      	ldr	r2, [r7, #4]
    22c0:	7812      	ldrb	r2, [r2, #0]
    22c2:	4611      	mov	r1, r2
    22c4:	697a      	ldr	r2, [r7, #20]
    22c6:	b2d2      	uxtb	r2, r2
    22c8:	440b      	add	r3, r1
    22ca:	f883 2300 	strb.w	r2, [r3, #768]	; 0x300
    22ce:	f44f 4361 	mov.w	r3, #57600	; 0xe100
    22d2:	f2ce 0300 	movt	r3, #57344	; 0xe000
    22d6:	687a      	ldr	r2, [r7, #4]
    22d8:	7812      	ldrb	r2, [r2, #0]
    22da:	0952      	lsrs	r2, r2, #5
    22dc:	b2d2      	uxtb	r2, r2
    22de:	6879      	ldr	r1, [r7, #4]
    22e0:	7809      	ldrb	r1, [r1, #0]
    22e2:	f001 011f 	and.w	r1, r1, #31
    22e6:	2001      	movs	r0, #1
    22e8:	fa00 f101 	lsl.w	r1, r0, r1
    22ec:	f843 1022 	str.w	r1, [r3, r2, lsl #2]
    22f0:	e011      	b.n	2316 <NVIC_Init+0xc6>
    22f2:	f44f 4361 	mov.w	r3, #57600	; 0xe100
    22f6:	f2ce 0300 	movt	r3, #57344	; 0xe000
    22fa:	687a      	ldr	r2, [r7, #4]
    22fc:	7812      	ldrb	r2, [r2, #0]
    22fe:	0952      	lsrs	r2, r2, #5
    2300:	b2d2      	uxtb	r2, r2
    2302:	6879      	ldr	r1, [r7, #4]
    2304:	7809      	ldrb	r1, [r1, #0]
    2306:	f001 011f 	and.w	r1, r1, #31
    230a:	2001      	movs	r0, #1
    230c:	fa00 f101 	lsl.w	r1, r0, r1
    2310:	3220      	adds	r2, #32
    2312:	f843 1022 	str.w	r1, [r3, r2, lsl #2]
    2316:	371c      	adds	r7, #28
    2318:	46bd      	mov	sp, r7
    231a:	f85d 7b04 	ldr.w	r7, [sp], #4
    231e:	4770      	bx	lr

00002320 <NVIC_SetVectorTable>:
    2320:	b480      	push	{r7}
    2322:	b083      	sub	sp, #12
    2324:	af00      	add	r7, sp, #0
    2326:	6078      	str	r0, [r7, #4]
    2328:	6039      	str	r1, [r7, #0]
    232a:	f44f 436d 	mov.w	r3, #60672	; 0xed00
    232e:	f2ce 0300 	movt	r3, #57344	; 0xe000
    2332:	683a      	ldr	r2, [r7, #0]
    2334:	f022 4260 	bic.w	r2, r2, #3758096384	; 0xe0000000
    2338:	f022 027f 	bic.w	r2, r2, #127	; 0x7f
    233c:	6879      	ldr	r1, [r7, #4]
    233e:	430a      	orrs	r2, r1
    2340:	609a      	str	r2, [r3, #8]
    2342:	370c      	adds	r7, #12
    2344:	46bd      	mov	sp, r7
    2346:	f85d 7b04 	ldr.w	r7, [sp], #4
    234a:	4770      	bx	lr

0000234c <NVIC_SystemLPConfig>:
    234c:	b480      	push	{r7}
    234e:	b083      	sub	sp, #12
    2350:	af00      	add	r7, sp, #0
    2352:	4602      	mov	r2, r0
    2354:	460b      	mov	r3, r1
    2356:	71fa      	strb	r2, [r7, #7]
    2358:	71bb      	strb	r3, [r7, #6]
    235a:	79bb      	ldrb	r3, [r7, #6]
    235c:	2b00      	cmp	r3, #0
    235e:	d00c      	beq.n	237a <NVIC_SystemLPConfig+0x2e>
    2360:	f44f 436d 	mov.w	r3, #60672	; 0xed00
    2364:	f2ce 0300 	movt	r3, #57344	; 0xe000
    2368:	f44f 426d 	mov.w	r2, #60672	; 0xed00
    236c:	f2ce 0200 	movt	r2, #57344	; 0xe000
    2370:	6911      	ldr	r1, [r2, #16]
    2372:	79fa      	ldrb	r2, [r7, #7]
    2374:	430a      	orrs	r2, r1
    2376:	611a      	str	r2, [r3, #16]
    2378:	e00c      	b.n	2394 <NVIC_SystemLPConfig+0x48>
    237a:	f44f 436d 	mov.w	r3, #60672	; 0xed00
    237e:	f2ce 0300 	movt	r3, #57344	; 0xe000
    2382:	f44f 426d 	mov.w	r2, #60672	; 0xed00
    2386:	f2ce 0200 	movt	r2, #57344	; 0xe000
    238a:	6911      	ldr	r1, [r2, #16]
    238c:	79fa      	ldrb	r2, [r7, #7]
    238e:	43d2      	mvns	r2, r2
    2390:	400a      	ands	r2, r1
    2392:	611a      	str	r2, [r3, #16]
    2394:	370c      	adds	r7, #12
    2396:	46bd      	mov	sp, r7
    2398:	f85d 7b04 	ldr.w	r7, [sp], #4
    239c:	4770      	bx	lr
    239e:	bf00      	nop

000023a0 <SysTick_CLKSourceConfig>:
    23a0:	b480      	push	{r7}
    23a2:	b083      	sub	sp, #12
    23a4:	af00      	add	r7, sp, #0
    23a6:	6078      	str	r0, [r7, #4]
    23a8:	687b      	ldr	r3, [r7, #4]
    23aa:	2b04      	cmp	r3, #4
    23ac:	d10c      	bne.n	23c8 <SysTick_CLKSourceConfig+0x28>
    23ae:	f24e 0310 	movw	r3, #57360	; 0xe010
    23b2:	f2ce 0300 	movt	r3, #57344	; 0xe000
    23b6:	f24e 0210 	movw	r2, #57360	; 0xe010
    23ba:	f2ce 0200 	movt	r2, #57344	; 0xe000
    23be:	6812      	ldr	r2, [r2, #0]
    23c0:	f042 0204 	orr.w	r2, r2, #4
    23c4:	601a      	str	r2, [r3, #0]
    23c6:	e00b      	b.n	23e0 <SysTick_CLKSourceConfig+0x40>
    23c8:	f24e 0310 	movw	r3, #57360	; 0xe010
    23cc:	f2ce 0300 	movt	r3, #57344	; 0xe000
    23d0:	f24e 0210 	movw	r2, #57360	; 0xe010
    23d4:	f2ce 0200 	movt	r2, #57344	; 0xe000
    23d8:	6812      	ldr	r2, [r2, #0]
    23da:	f022 0204 	bic.w	r2, r2, #4
    23de:	601a      	str	r2, [r3, #0]
    23e0:	370c      	adds	r7, #12
    23e2:	46bd      	mov	sp, r7
    23e4:	f85d 7b04 	ldr.w	r7, [sp], #4
    23e8:	4770      	bx	lr
    23ea:	bf00      	nop

000023ec <xCoRoutineCreate>:
    23ec:	b580      	push	{r7, lr}
    23ee:	b086      	sub	sp, #24
    23f0:	af00      	add	r7, sp, #0
    23f2:	60f8      	str	r0, [r7, #12]
    23f4:	60b9      	str	r1, [r7, #8]
    23f6:	607a      	str	r2, [r7, #4]
    23f8:	2038      	movs	r0, #56	; 0x38
    23fa:	f003 fa27 	bl	584c <pvPortMalloc>
    23fe:	6138      	str	r0, [r7, #16]
    2400:	693b      	ldr	r3, [r7, #16]
    2402:	2b00      	cmp	r3, #0
    2404:	d058      	beq.n	24b8 <xCoRoutineCreate+0xcc>
    2406:	f240 03ac 	movw	r3, #172	; 0xac
    240a:	f2c2 0300 	movt	r3, #8192	; 0x2000
    240e:	681b      	ldr	r3, [r3, #0]
    2410:	2b00      	cmp	r3, #0
    2412:	d107      	bne.n	2424 <xCoRoutineCreate+0x38>
    2414:	f240 03ac 	movw	r3, #172	; 0xac
    2418:	f2c2 0300 	movt	r3, #8192	; 0x2000
    241c:	693a      	ldr	r2, [r7, #16]
    241e:	601a      	str	r2, [r3, #0]
    2420:	f000 fa08 	bl	2834 <prvInitialiseCoRoutineLists>
    2424:	68bb      	ldr	r3, [r7, #8]
    2426:	2b01      	cmp	r3, #1
    2428:	d901      	bls.n	242e <xCoRoutineCreate+0x42>
    242a:	2301      	movs	r3, #1
    242c:	60bb      	str	r3, [r7, #8]
    242e:	693b      	ldr	r3, [r7, #16]
    2430:	2200      	movs	r2, #0
    2432:	869a      	strh	r2, [r3, #52]	; 0x34
    2434:	693b      	ldr	r3, [r7, #16]
    2436:	68ba      	ldr	r2, [r7, #8]
    2438:	62da      	str	r2, [r3, #44]	; 0x2c
    243a:	693b      	ldr	r3, [r7, #16]
    243c:	687a      	ldr	r2, [r7, #4]
    243e:	631a      	str	r2, [r3, #48]	; 0x30
    2440:	693b      	ldr	r3, [r7, #16]
    2442:	68fa      	ldr	r2, [r7, #12]
    2444:	601a      	str	r2, [r3, #0]
    2446:	693b      	ldr	r3, [r7, #16]
    2448:	3304      	adds	r3, #4
    244a:	4618      	mov	r0, r3
    244c:	f001 fb66 	bl	3b1c <vListInitialiseItem>
    2450:	693b      	ldr	r3, [r7, #16]
    2452:	3318      	adds	r3, #24
    2454:	4618      	mov	r0, r3
    2456:	f001 fb61 	bl	3b1c <vListInitialiseItem>
    245a:	693b      	ldr	r3, [r7, #16]
    245c:	693a      	ldr	r2, [r7, #16]
    245e:	611a      	str	r2, [r3, #16]
    2460:	693b      	ldr	r3, [r7, #16]
    2462:	693a      	ldr	r2, [r7, #16]
    2464:	625a      	str	r2, [r3, #36]	; 0x24
    2466:	68bb      	ldr	r3, [r7, #8]
    2468:	f1c3 0214 	rsb	r2, r3, #20
    246c:	693b      	ldr	r3, [r7, #16]
    246e:	619a      	str	r2, [r3, #24]
    2470:	693b      	ldr	r3, [r7, #16]
    2472:	6ada      	ldr	r2, [r3, #44]	; 0x2c
    2474:	f240 03b0 	movw	r3, #176	; 0xb0
    2478:	f2c2 0300 	movt	r3, #8192	; 0x2000
    247c:	681b      	ldr	r3, [r3, #0]
    247e:	429a      	cmp	r2, r3
    2480:	d906      	bls.n	2490 <xCoRoutineCreate+0xa4>
    2482:	693b      	ldr	r3, [r7, #16]
    2484:	6ada      	ldr	r2, [r3, #44]	; 0x2c
    2486:	f240 03b0 	movw	r3, #176	; 0xb0
    248a:	f2c2 0300 	movt	r3, #8192	; 0x2000
    248e:	601a      	str	r2, [r3, #0]
    2490:	693b      	ldr	r3, [r7, #16]
    2492:	6ada      	ldr	r2, [r3, #44]	; 0x2c
    2494:	4613      	mov	r3, r2
    2496:	009b      	lsls	r3, r3, #2
    2498:	4413      	add	r3, r2
    249a:	009b      	lsls	r3, r3, #2
    249c:	f240 0240 	movw	r2, #64	; 0x40
    24a0:	f2c2 0200 	movt	r2, #8192	; 0x2000
    24a4:	441a      	add	r2, r3
    24a6:	693b      	ldr	r3, [r7, #16]
    24a8:	3304      	adds	r3, #4
    24aa:	4610      	mov	r0, r2
    24ac:	4619      	mov	r1, r3
    24ae:	f001 fb41 	bl	3b34 <vListInsertEnd>
    24b2:	2301      	movs	r3, #1
    24b4:	617b      	str	r3, [r7, #20]
    24b6:	e002      	b.n	24be <xCoRoutineCreate+0xd2>
    24b8:	f04f 33ff 	mov.w	r3, #4294967295
    24bc:	617b      	str	r3, [r7, #20]
    24be:	697b      	ldr	r3, [r7, #20]
    24c0:	4618      	mov	r0, r3
    24c2:	3718      	adds	r7, #24
    24c4:	46bd      	mov	sp, r7
    24c6:	bd80      	pop	{r7, pc}

000024c8 <vCoRoutineAddToDelayedList>:
    24c8:	b580      	push	{r7, lr}
    24ca:	b084      	sub	sp, #16
    24cc:	af00      	add	r7, sp, #0
    24ce:	6078      	str	r0, [r7, #4]
    24d0:	6039      	str	r1, [r7, #0]
    24d2:	f240 03b4 	movw	r3, #180	; 0xb4
    24d6:	f2c2 0300 	movt	r3, #8192	; 0x2000
    24da:	681a      	ldr	r2, [r3, #0]
    24dc:	687b      	ldr	r3, [r7, #4]
    24de:	4413      	add	r3, r2
    24e0:	60fb      	str	r3, [r7, #12]
    24e2:	f240 03ac 	movw	r3, #172	; 0xac
    24e6:	f2c2 0300 	movt	r3, #8192	; 0x2000
    24ea:	681b      	ldr	r3, [r3, #0]
    24ec:	3304      	adds	r3, #4
    24ee:	4618      	mov	r0, r3
    24f0:	f001 fb80 	bl	3bf4 <vListRemove>
    24f4:	f240 03ac 	movw	r3, #172	; 0xac
    24f8:	f2c2 0300 	movt	r3, #8192	; 0x2000
    24fc:	681b      	ldr	r3, [r3, #0]
    24fe:	68fa      	ldr	r2, [r7, #12]
    2500:	605a      	str	r2, [r3, #4]
    2502:	f240 03b4 	movw	r3, #180	; 0xb4
    2506:	f2c2 0300 	movt	r3, #8192	; 0x2000
    250a:	681b      	ldr	r3, [r3, #0]
    250c:	68fa      	ldr	r2, [r7, #12]
    250e:	429a      	cmp	r2, r3
    2510:	d20f      	bcs.n	2532 <vCoRoutineAddToDelayedList+0x6a>
    2512:	f240 0394 	movw	r3, #148	; 0x94
    2516:	f2c2 0300 	movt	r3, #8192	; 0x2000
    251a:	681a      	ldr	r2, [r3, #0]
    251c:	f240 03ac 	movw	r3, #172	; 0xac
    2520:	f2c2 0300 	movt	r3, #8192	; 0x2000
    2524:	681b      	ldr	r3, [r3, #0]
    2526:	3304      	adds	r3, #4
    2528:	4610      	mov	r0, r2
    252a:	4619      	mov	r1, r3
    252c:	f001 fb2a 	bl	3b84 <vListInsert>
    2530:	e00e      	b.n	2550 <vCoRoutineAddToDelayedList+0x88>
    2532:	f240 0390 	movw	r3, #144	; 0x90
    2536:	f2c2 0300 	movt	r3, #8192	; 0x2000
    253a:	681a      	ldr	r2, [r3, #0]
    253c:	f240 03ac 	movw	r3, #172	; 0xac
    2540:	f2c2 0300 	movt	r3, #8192	; 0x2000
    2544:	681b      	ldr	r3, [r3, #0]
    2546:	3304      	adds	r3, #4
    2548:	4610      	mov	r0, r2
    254a:	4619      	mov	r1, r3
    254c:	f001 fb1a 	bl	3b84 <vListInsert>
    2550:	683b      	ldr	r3, [r7, #0]
    2552:	2b00      	cmp	r3, #0
    2554:	d009      	beq.n	256a <vCoRoutineAddToDelayedList+0xa2>
    2556:	f240 03ac 	movw	r3, #172	; 0xac
    255a:	f2c2 0300 	movt	r3, #8192	; 0x2000
    255e:	681b      	ldr	r3, [r3, #0]
    2560:	3318      	adds	r3, #24
    2562:	6838      	ldr	r0, [r7, #0]
    2564:	4619      	mov	r1, r3
    2566:	f001 fb0d 	bl	3b84 <vListInsert>
    256a:	3710      	adds	r7, #16
    256c:	46bd      	mov	sp, r7
    256e:	bd80      	pop	{r7, pc}

00002570 <prvCheckPendingReadyList>:
    2570:	b580      	push	{r7, lr}
    2572:	b082      	sub	sp, #8
    2574:	af00      	add	r7, sp, #0
    2576:	e039      	b.n	25ec <prvCheckPendingReadyList+0x7c>
    2578:	f04f 00bf 	mov.w	r0, #191	; 0xbf
    257c:	f380 8811 	msr	BASEPRI, r0
    2580:	f240 0398 	movw	r3, #152	; 0x98
    2584:	f2c2 0300 	movt	r3, #8192	; 0x2000
    2588:	68db      	ldr	r3, [r3, #12]
    258a:	68db      	ldr	r3, [r3, #12]
    258c:	607b      	str	r3, [r7, #4]
    258e:	687b      	ldr	r3, [r7, #4]
    2590:	3318      	adds	r3, #24
    2592:	4618      	mov	r0, r3
    2594:	f001 fb2e 	bl	3bf4 <vListRemove>
    2598:	f04f 0000 	mov.w	r0, #0
    259c:	f380 8811 	msr	BASEPRI, r0
    25a0:	687b      	ldr	r3, [r7, #4]
    25a2:	3304      	adds	r3, #4
    25a4:	4618      	mov	r0, r3
    25a6:	f001 fb25 	bl	3bf4 <vListRemove>
    25aa:	687b      	ldr	r3, [r7, #4]
    25ac:	6ada      	ldr	r2, [r3, #44]	; 0x2c
    25ae:	f240 03b0 	movw	r3, #176	; 0xb0
    25b2:	f2c2 0300 	movt	r3, #8192	; 0x2000
    25b6:	681b      	ldr	r3, [r3, #0]
    25b8:	429a      	cmp	r2, r3
    25ba:	d906      	bls.n	25ca <prvCheckPendingReadyList+0x5a>
    25bc:	687b      	ldr	r3, [r7, #4]
    25be:	6ada      	ldr	r2, [r3, #44]	; 0x2c
    25c0:	f240 03b0 	movw	r3, #176	; 0xb0
    25c4:	f2c2 0300 	movt	r3, #8192	; 0x2000
    25c8:	601a      	str	r2, [r3, #0]
    25ca:	687b      	ldr	r3, [r7, #4]
    25cc:	6ada      	ldr	r2, [r3, #44]	; 0x2c
    25ce:	4613      	mov	r3, r2
    25d0:	009b      	lsls	r3, r3, #2
    25d2:	4413      	add	r3, r2
    25d4:	009b      	lsls	r3, r3, #2
    25d6:	f240 0240 	movw	r2, #64	; 0x40
    25da:	f2c2 0200 	movt	r2, #8192	; 0x2000
    25de:	441a      	add	r2, r3
    25e0:	687b      	ldr	r3, [r7, #4]
    25e2:	3304      	adds	r3, #4
    25e4:	4610      	mov	r0, r2
    25e6:	4619      	mov	r1, r3
    25e8:	f001 faa4 	bl	3b34 <vListInsertEnd>
    25ec:	f240 0398 	movw	r3, #152	; 0x98
    25f0:	f2c2 0300 	movt	r3, #8192	; 0x2000
    25f4:	681b      	ldr	r3, [r3, #0]
    25f6:	2b00      	cmp	r3, #0
    25f8:	d1be      	bne.n	2578 <prvCheckPendingReadyList+0x8>
    25fa:	3708      	adds	r7, #8
    25fc:	46bd      	mov	sp, r7
    25fe:	bd80      	pop	{r7, pc}

00002600 <prvCheckDelayedList>:
    2600:	b580      	push	{r7, lr}
    2602:	b082      	sub	sp, #8
    2604:	af00      	add	r7, sp, #0
    2606:	f002 fb73 	bl	4cf0 <xTaskGetTickCount>
    260a:	4602      	mov	r2, r0
    260c:	f240 03b8 	movw	r3, #184	; 0xb8
    2610:	f2c2 0300 	movt	r3, #8192	; 0x2000
    2614:	681b      	ldr	r3, [r3, #0]
    2616:	1ad2      	subs	r2, r2, r3
    2618:	f240 03bc 	movw	r3, #188	; 0xbc
    261c:	f2c2 0300 	movt	r3, #8192	; 0x2000
    2620:	601a      	str	r2, [r3, #0]
    2622:	e085      	b.n	2730 <prvCheckDelayedList+0x130>
    2624:	f240 03b4 	movw	r3, #180	; 0xb4
    2628:	f2c2 0300 	movt	r3, #8192	; 0x2000
    262c:	681b      	ldr	r3, [r3, #0]
    262e:	1c5a      	adds	r2, r3, #1
    2630:	f240 03b4 	movw	r3, #180	; 0xb4
    2634:	f2c2 0300 	movt	r3, #8192	; 0x2000
    2638:	601a      	str	r2, [r3, #0]
    263a:	f240 03bc 	movw	r3, #188	; 0xbc
    263e:	f2c2 0300 	movt	r3, #8192	; 0x2000
    2642:	681b      	ldr	r3, [r3, #0]
    2644:	1e5a      	subs	r2, r3, #1
    2646:	f240 03bc 	movw	r3, #188	; 0xbc
    264a:	f2c2 0300 	movt	r3, #8192	; 0x2000
    264e:	601a      	str	r2, [r3, #0]
    2650:	f240 03b4 	movw	r3, #180	; 0xb4
    2654:	f2c2 0300 	movt	r3, #8192	; 0x2000
    2658:	681b      	ldr	r3, [r3, #0]
    265a:	2b00      	cmp	r3, #0
    265c:	d116      	bne.n	268c <prvCheckDelayedList+0x8c>
    265e:	f240 0390 	movw	r3, #144	; 0x90
    2662:	f2c2 0300 	movt	r3, #8192	; 0x2000
    2666:	681b      	ldr	r3, [r3, #0]
    2668:	607b      	str	r3, [r7, #4]
    266a:	f240 0394 	movw	r3, #148	; 0x94
    266e:	f2c2 0300 	movt	r3, #8192	; 0x2000
    2672:	681a      	ldr	r2, [r3, #0]
    2674:	f240 0390 	movw	r3, #144	; 0x90
    2678:	f2c2 0300 	movt	r3, #8192	; 0x2000
    267c:	601a      	str	r2, [r3, #0]
    267e:	f240 0394 	movw	r3, #148	; 0x94
    2682:	f2c2 0300 	movt	r3, #8192	; 0x2000
    2686:	687a      	ldr	r2, [r7, #4]
    2688:	601a      	str	r2, [r3, #0]
    268a:	e049      	b.n	2720 <prvCheckDelayedList+0x120>
    268c:	e048      	b.n	2720 <prvCheckDelayedList+0x120>
    268e:	f240 0390 	movw	r3, #144	; 0x90
    2692:	f2c2 0300 	movt	r3, #8192	; 0x2000
    2696:	681b      	ldr	r3, [r3, #0]
    2698:	68db      	ldr	r3, [r3, #12]
    269a:	68db      	ldr	r3, [r3, #12]
    269c:	603b      	str	r3, [r7, #0]
    269e:	683b      	ldr	r3, [r7, #0]
    26a0:	685a      	ldr	r2, [r3, #4]
    26a2:	f240 03b4 	movw	r3, #180	; 0xb4
    26a6:	f2c2 0300 	movt	r3, #8192	; 0x2000
    26aa:	681b      	ldr	r3, [r3, #0]
    26ac:	429a      	cmp	r2, r3
    26ae:	d900      	bls.n	26b2 <prvCheckDelayedList+0xb2>
    26b0:	e03e      	b.n	2730 <prvCheckDelayedList+0x130>
    26b2:	f04f 00bf 	mov.w	r0, #191	; 0xbf
    26b6:	f380 8811 	msr	BASEPRI, r0
    26ba:	683b      	ldr	r3, [r7, #0]
    26bc:	3304      	adds	r3, #4
    26be:	4618      	mov	r0, r3
    26c0:	f001 fa98 	bl	3bf4 <vListRemove>
    26c4:	683b      	ldr	r3, [r7, #0]
    26c6:	6a9b      	ldr	r3, [r3, #40]	; 0x28
    26c8:	2b00      	cmp	r3, #0
    26ca:	d004      	beq.n	26d6 <prvCheckDelayedList+0xd6>
    26cc:	683b      	ldr	r3, [r7, #0]
    26ce:	3318      	adds	r3, #24
    26d0:	4618      	mov	r0, r3
    26d2:	f001 fa8f 	bl	3bf4 <vListRemove>
    26d6:	f04f 0000 	mov.w	r0, #0
    26da:	f380 8811 	msr	BASEPRI, r0
    26de:	683b      	ldr	r3, [r7, #0]
    26e0:	6ada      	ldr	r2, [r3, #44]	; 0x2c
    26e2:	f240 03b0 	movw	r3, #176	; 0xb0
    26e6:	f2c2 0300 	movt	r3, #8192	; 0x2000
    26ea:	681b      	ldr	r3, [r3, #0]
    26ec:	429a      	cmp	r2, r3
    26ee:	d906      	bls.n	26fe <prvCheckDelayedList+0xfe>
    26f0:	683b      	ldr	r3, [r7, #0]
    26f2:	6ada      	ldr	r2, [r3, #44]	; 0x2c
    26f4:	f240 03b0 	movw	r3, #176	; 0xb0
    26f8:	f2c2 0300 	movt	r3, #8192	; 0x2000
    26fc:	601a      	str	r2, [r3, #0]
    26fe:	683b      	ldr	r3, [r7, #0]
    2700:	6ada      	ldr	r2, [r3, #44]	; 0x2c
    2702:	4613      	mov	r3, r2
    2704:	009b      	lsls	r3, r3, #2
    2706:	4413      	add	r3, r2
    2708:	009b      	lsls	r3, r3, #2
    270a:	f240 0240 	movw	r2, #64	; 0x40
    270e:	f2c2 0200 	movt	r2, #8192	; 0x2000
    2712:	441a      	add	r2, r3
    2714:	683b      	ldr	r3, [r7, #0]
    2716:	3304      	adds	r3, #4
    2718:	4610      	mov	r0, r2
    271a:	4619      	mov	r1, r3
    271c:	f001 fa0a 	bl	3b34 <vListInsertEnd>
    2720:	f240 0390 	movw	r3, #144	; 0x90
    2724:	f2c2 0300 	movt	r3, #8192	; 0x2000
    2728:	681b      	ldr	r3, [r3, #0]
    272a:	681b      	ldr	r3, [r3, #0]
    272c:	2b00      	cmp	r3, #0
    272e:	d1ae      	bne.n	268e <prvCheckDelayedList+0x8e>
    2730:	f240 03bc 	movw	r3, #188	; 0xbc
    2734:	f2c2 0300 	movt	r3, #8192	; 0x2000
    2738:	681b      	ldr	r3, [r3, #0]
    273a:	2b00      	cmp	r3, #0
    273c:	f47f af72 	bne.w	2624 <prvCheckDelayedList+0x24>
    2740:	f240 03b4 	movw	r3, #180	; 0xb4
    2744:	f2c2 0300 	movt	r3, #8192	; 0x2000
    2748:	681a      	ldr	r2, [r3, #0]
    274a:	f240 03b8 	movw	r3, #184	; 0xb8
    274e:	f2c2 0300 	movt	r3, #8192	; 0x2000
    2752:	601a      	str	r2, [r3, #0]
    2754:	3708      	adds	r7, #8
    2756:	46bd      	mov	sp, r7
    2758:	bd80      	pop	{r7, pc}
    275a:	bf00      	nop

0000275c <vCoRoutineSchedule>:
    275c:	b580      	push	{r7, lr}
    275e:	b082      	sub	sp, #8
    2760:	af00      	add	r7, sp, #0
    2762:	f7ff ff05 	bl	2570 <prvCheckPendingReadyList>
    2766:	f7ff ff4b 	bl	2600 <prvCheckDelayedList>
    276a:	e012      	b.n	2792 <vCoRoutineSchedule+0x36>
    276c:	f240 03b0 	movw	r3, #176	; 0xb0
    2770:	f2c2 0300 	movt	r3, #8192	; 0x2000
    2774:	681b      	ldr	r3, [r3, #0]
    2776:	2b00      	cmp	r3, #0
    2778:	d100      	bne.n	277c <vCoRoutineSchedule+0x20>
    277a:	e057      	b.n	282c <vCoRoutineSchedule+0xd0>
    277c:	f240 03b0 	movw	r3, #176	; 0xb0
    2780:	f2c2 0300 	movt	r3, #8192	; 0x2000
    2784:	681b      	ldr	r3, [r3, #0]
    2786:	1e5a      	subs	r2, r3, #1
    2788:	f240 03b0 	movw	r3, #176	; 0xb0
    278c:	f2c2 0300 	movt	r3, #8192	; 0x2000
    2790:	601a      	str	r2, [r3, #0]
    2792:	f240 03b0 	movw	r3, #176	; 0xb0
    2796:	f2c2 0300 	movt	r3, #8192	; 0x2000
    279a:	6819      	ldr	r1, [r3, #0]
    279c:	f240 0240 	movw	r2, #64	; 0x40
    27a0:	f2c2 0200 	movt	r2, #8192	; 0x2000
    27a4:	460b      	mov	r3, r1
    27a6:	009b      	lsls	r3, r3, #2
    27a8:	440b      	add	r3, r1
    27aa:	009b      	lsls	r3, r3, #2
    27ac:	4413      	add	r3, r2
    27ae:	681b      	ldr	r3, [r3, #0]
    27b0:	2b00      	cmp	r3, #0
    27b2:	d0db      	beq.n	276c <vCoRoutineSchedule+0x10>
    27b4:	f240 03b0 	movw	r3, #176	; 0xb0
    27b8:	f2c2 0300 	movt	r3, #8192	; 0x2000
    27bc:	681a      	ldr	r2, [r3, #0]
    27be:	4613      	mov	r3, r2
    27c0:	009b      	lsls	r3, r3, #2
    27c2:	4413      	add	r3, r2
    27c4:	009b      	lsls	r3, r3, #2
    27c6:	f240 0240 	movw	r2, #64	; 0x40
    27ca:	f2c2 0200 	movt	r2, #8192	; 0x2000
    27ce:	4413      	add	r3, r2
    27d0:	607b      	str	r3, [r7, #4]
    27d2:	687b      	ldr	r3, [r7, #4]
    27d4:	685b      	ldr	r3, [r3, #4]
    27d6:	685a      	ldr	r2, [r3, #4]
    27d8:	687b      	ldr	r3, [r7, #4]
    27da:	605a      	str	r2, [r3, #4]
    27dc:	687b      	ldr	r3, [r7, #4]
    27de:	685a      	ldr	r2, [r3, #4]
    27e0:	687b      	ldr	r3, [r7, #4]
    27e2:	3308      	adds	r3, #8
    27e4:	429a      	cmp	r2, r3
    27e6:	d104      	bne.n	27f2 <vCoRoutineSchedule+0x96>
    27e8:	687b      	ldr	r3, [r7, #4]
    27ea:	685b      	ldr	r3, [r3, #4]
    27ec:	685a      	ldr	r2, [r3, #4]
    27ee:	687b      	ldr	r3, [r7, #4]
    27f0:	605a      	str	r2, [r3, #4]
    27f2:	687b      	ldr	r3, [r7, #4]
    27f4:	685b      	ldr	r3, [r3, #4]
    27f6:	68da      	ldr	r2, [r3, #12]
    27f8:	f240 03ac 	movw	r3, #172	; 0xac
    27fc:	f2c2 0300 	movt	r3, #8192	; 0x2000
    2800:	601a      	str	r2, [r3, #0]
    2802:	f240 03ac 	movw	r3, #172	; 0xac
    2806:	f2c2 0300 	movt	r3, #8192	; 0x2000
    280a:	681b      	ldr	r3, [r3, #0]
    280c:	681a      	ldr	r2, [r3, #0]
    280e:	f240 03ac 	movw	r3, #172	; 0xac
    2812:	f2c2 0300 	movt	r3, #8192	; 0x2000
    2816:	6819      	ldr	r1, [r3, #0]
    2818:	f240 03ac 	movw	r3, #172	; 0xac
    281c:	f2c2 0300 	movt	r3, #8192	; 0x2000
    2820:	681b      	ldr	r3, [r3, #0]
    2822:	6b1b      	ldr	r3, [r3, #48]	; 0x30
    2824:	4608      	mov	r0, r1
    2826:	4619      	mov	r1, r3
    2828:	4790      	blx	r2
    282a:	bf00      	nop
    282c:	3708      	adds	r7, #8
    282e:	46bd      	mov	sp, r7
    2830:	bd80      	pop	{r7, pc}
    2832:	bf00      	nop

00002834 <prvInitialiseCoRoutineLists>:
    2834:	b580      	push	{r7, lr}
    2836:	b082      	sub	sp, #8
    2838:	af00      	add	r7, sp, #0
    283a:	2300      	movs	r3, #0
    283c:	607b      	str	r3, [r7, #4]
    283e:	e00f      	b.n	2860 <prvInitialiseCoRoutineLists+0x2c>
    2840:	687a      	ldr	r2, [r7, #4]
    2842:	4613      	mov	r3, r2
    2844:	009b      	lsls	r3, r3, #2
    2846:	4413      	add	r3, r2
    2848:	009b      	lsls	r3, r3, #2
    284a:	f240 0240 	movw	r2, #64	; 0x40
    284e:	f2c2 0200 	movt	r2, #8192	; 0x2000
    2852:	4413      	add	r3, r2
    2854:	4618      	mov	r0, r3
    2856:	f001 f941 	bl	3adc <vListInitialise>
    285a:	687b      	ldr	r3, [r7, #4]
    285c:	3301      	adds	r3, #1
    285e:	607b      	str	r3, [r7, #4]
    2860:	687b      	ldr	r3, [r7, #4]
    2862:	2b01      	cmp	r3, #1
    2864:	d9ec      	bls.n	2840 <prvInitialiseCoRoutineLists+0xc>
    2866:	f240 0068 	movw	r0, #104	; 0x68
    286a:	f2c2 0000 	movt	r0, #8192	; 0x2000
    286e:	f001 f935 	bl	3adc <vListInitialise>
    2872:	f240 007c 	movw	r0, #124	; 0x7c
    2876:	f2c2 0000 	movt	r0, #8192	; 0x2000
    287a:	f001 f92f 	bl	3adc <vListInitialise>
    287e:	f240 0098 	movw	r0, #152	; 0x98
    2882:	f2c2 0000 	movt	r0, #8192	; 0x2000
    2886:	f001 f929 	bl	3adc <vListInitialise>
    288a:	f240 0390 	movw	r3, #144	; 0x90
    288e:	f2c2 0300 	movt	r3, #8192	; 0x2000
    2892:	f240 0268 	movw	r2, #104	; 0x68
    2896:	f2c2 0200 	movt	r2, #8192	; 0x2000
    289a:	601a      	str	r2, [r3, #0]
    289c:	f240 0394 	movw	r3, #148	; 0x94
    28a0:	f2c2 0300 	movt	r3, #8192	; 0x2000
    28a4:	f240 027c 	movw	r2, #124	; 0x7c
    28a8:	f2c2 0200 	movt	r2, #8192	; 0x2000
    28ac:	601a      	str	r2, [r3, #0]
    28ae:	3708      	adds	r7, #8
    28b0:	46bd      	mov	sp, r7
    28b2:	bd80      	pop	{r7, pc}

000028b4 <xCoRoutineRemoveFromEventList>:
    28b4:	b580      	push	{r7, lr}
    28b6:	b084      	sub	sp, #16
    28b8:	af00      	add	r7, sp, #0
    28ba:	6078      	str	r0, [r7, #4]
    28bc:	687b      	ldr	r3, [r7, #4]
    28be:	68db      	ldr	r3, [r3, #12]
    28c0:	68db      	ldr	r3, [r3, #12]
    28c2:	60bb      	str	r3, [r7, #8]
    28c4:	68bb      	ldr	r3, [r7, #8]
    28c6:	3318      	adds	r3, #24
    28c8:	4618      	mov	r0, r3
    28ca:	f001 f993 	bl	3bf4 <vListRemove>
    28ce:	68bb      	ldr	r3, [r7, #8]
    28d0:	3318      	adds	r3, #24
    28d2:	f240 0098 	movw	r0, #152	; 0x98
    28d6:	f2c2 0000 	movt	r0, #8192	; 0x2000
    28da:	4619      	mov	r1, r3
    28dc:	f001 f92a 	bl	3b34 <vListInsertEnd>
    28e0:	68bb      	ldr	r3, [r7, #8]
    28e2:	6ada      	ldr	r2, [r3, #44]	; 0x2c
    28e4:	f240 03ac 	movw	r3, #172	; 0xac
    28e8:	f2c2 0300 	movt	r3, #8192	; 0x2000
    28ec:	681b      	ldr	r3, [r3, #0]
    28ee:	6adb      	ldr	r3, [r3, #44]	; 0x2c
    28f0:	429a      	cmp	r2, r3
    28f2:	d302      	bcc.n	28fa <xCoRoutineRemoveFromEventList+0x46>
    28f4:	2301      	movs	r3, #1
    28f6:	60fb      	str	r3, [r7, #12]
    28f8:	e001      	b.n	28fe <xCoRoutineRemoveFromEventList+0x4a>
    28fa:	2300      	movs	r3, #0
    28fc:	60fb      	str	r3, [r7, #12]
    28fe:	68fb      	ldr	r3, [r7, #12]
    2900:	4618      	mov	r0, r3
    2902:	3710      	adds	r7, #16
    2904:	46bd      	mov	sp, r7
    2906:	bd80      	pop	{r7, pc}

00002908 <prvInitialiseEventLists>:
    2908:	b580      	push	{r7, lr}
    290a:	b082      	sub	sp, #8
    290c:	af00      	add	r7, sp, #0
    290e:	f240 00c0 	movw	r0, #192	; 0xc0
    2912:	f2c2 0000 	movt	r0, #8192	; 0x2000
    2916:	f001 f8e1 	bl	3adc <vListInitialise>
    291a:	2300      	movs	r3, #0
    291c:	607b      	str	r3, [r7, #4]
    291e:	e00f      	b.n	2940 <prvInitialiseEventLists+0x38>
    2920:	687a      	ldr	r2, [r7, #4]
    2922:	4613      	mov	r3, r2
    2924:	009b      	lsls	r3, r3, #2
    2926:	4413      	add	r3, r2
    2928:	009b      	lsls	r3, r3, #2
    292a:	f240 02d4 	movw	r2, #212	; 0xd4
    292e:	f2c2 0200 	movt	r2, #8192	; 0x2000
    2932:	4413      	add	r3, r2
    2934:	4618      	mov	r0, r3
    2936:	f001 f8d1 	bl	3adc <vListInitialise>
    293a:	687b      	ldr	r3, [r7, #4]
    293c:	3301      	adds	r3, #1
    293e:	607b      	str	r3, [r7, #4]
    2940:	687b      	ldr	r3, [r7, #4]
    2942:	2b00      	cmp	r3, #0
    2944:	ddec      	ble.n	2920 <prvInitialiseEventLists+0x18>
    2946:	3708      	adds	r7, #8
    2948:	46bd      	mov	sp, r7
    294a:	bd80      	pop	{r7, pc}

0000294c <xCompareFunction>:
    294c:	b490      	push	{r4, r7}
    294e:	b084      	sub	sp, #16
    2950:	af00      	add	r7, sp, #0
    2952:	463c      	mov	r4, r7
    2954:	e884 000f 	stmia.w	r4, {r0, r1, r2, r3}
    2958:	683a      	ldr	r2, [r7, #0]
    295a:	69bb      	ldr	r3, [r7, #24]
    295c:	429a      	cmp	r2, r3
    295e:	d201      	bcs.n	2964 <xCompareFunction+0x18>
    2960:	2301      	movs	r3, #1
    2962:	e014      	b.n	298e <xCompareFunction+0x42>
    2964:	683a      	ldr	r2, [r7, #0]
    2966:	69bb      	ldr	r3, [r7, #24]
    2968:	429a      	cmp	r2, r3
    296a:	d10f      	bne.n	298c <xCompareFunction+0x40>
    296c:	687a      	ldr	r2, [r7, #4]
    296e:	69fb      	ldr	r3, [r7, #28]
    2970:	429a      	cmp	r2, r3
    2972:	d201      	bcs.n	2978 <xCompareFunction+0x2c>
    2974:	2301      	movs	r3, #1
    2976:	e00a      	b.n	298e <xCompareFunction+0x42>
    2978:	687a      	ldr	r2, [r7, #4]
    297a:	69fb      	ldr	r3, [r7, #28]
    297c:	429a      	cmp	r2, r3
    297e:	d105      	bne.n	298c <xCompareFunction+0x40>
    2980:	68fa      	ldr	r2, [r7, #12]
    2982:	6a7b      	ldr	r3, [r7, #36]	; 0x24
    2984:	429a      	cmp	r2, r3
    2986:	da01      	bge.n	298c <xCompareFunction+0x40>
    2988:	2301      	movs	r3, #1
    298a:	e000      	b.n	298e <xCompareFunction+0x42>
    298c:	2300      	movs	r3, #0
    298e:	4618      	mov	r0, r3
    2990:	3710      	adds	r7, #16
    2992:	46bd      	mov	sp, r7
    2994:	bc90      	pop	{r4, r7}
    2996:	4770      	bx	lr

00002998 <xEventGetpxSource>:
    2998:	b480      	push	{r7}
    299a:	b083      	sub	sp, #12
    299c:	af00      	add	r7, sp, #0
    299e:	6078      	str	r0, [r7, #4]
    29a0:	687b      	ldr	r3, [r7, #4]
    29a2:	681b      	ldr	r3, [r3, #0]
    29a4:	4618      	mov	r0, r3
    29a6:	370c      	adds	r7, #12
    29a8:	46bd      	mov	sp, r7
    29aa:	f85d 7b04 	ldr.w	r7, [sp], #4
    29ae:	4770      	bx	lr

000029b0 <xEventGetpxDestination>:
    29b0:	b480      	push	{r7}
    29b2:	b083      	sub	sp, #12
    29b4:	af00      	add	r7, sp, #0
    29b6:	6078      	str	r0, [r7, #4]
    29b8:	687b      	ldr	r3, [r7, #4]
    29ba:	685b      	ldr	r3, [r3, #4]
    29bc:	4618      	mov	r0, r3
    29be:	370c      	adds	r7, #12
    29c0:	46bd      	mov	sp, r7
    29c2:	f85d 7b04 	ldr.w	r7, [sp], #4
    29c6:	4770      	bx	lr

000029c8 <xEventGetxTimeStamp>:
    29c8:	b490      	push	{r4, r7}
    29ca:	b082      	sub	sp, #8
    29cc:	af00      	add	r7, sp, #0
    29ce:	6078      	str	r0, [r7, #4]
    29d0:	6039      	str	r1, [r7, #0]
    29d2:	687a      	ldr	r2, [r7, #4]
    29d4:	683b      	ldr	r3, [r7, #0]
    29d6:	4614      	mov	r4, r2
    29d8:	3308      	adds	r3, #8
    29da:	cb0f      	ldmia	r3, {r0, r1, r2, r3}
    29dc:	e884 000f 	stmia.w	r4, {r0, r1, r2, r3}
    29e0:	6878      	ldr	r0, [r7, #4]
    29e2:	3708      	adds	r7, #8
    29e4:	46bd      	mov	sp, r7
    29e6:	bc90      	pop	{r4, r7}
    29e8:	4770      	bx	lr
    29ea:	bf00      	nop

000029ec <xEventGetxData>:
    29ec:	b490      	push	{r4, r7}
    29ee:	b082      	sub	sp, #8
    29f0:	af00      	add	r7, sp, #0
    29f2:	6078      	str	r0, [r7, #4]
    29f4:	6039      	str	r1, [r7, #0]
    29f6:	687a      	ldr	r2, [r7, #4]
    29f8:	683b      	ldr	r3, [r7, #0]
    29fa:	4614      	mov	r4, r2
    29fc:	332c      	adds	r3, #44	; 0x2c
    29fe:	cb0f      	ldmia	r3, {r0, r1, r2, r3}
    2a00:	e884 000f 	stmia.w	r4, {r0, r1, r2, r3}
    2a04:	6878      	ldr	r0, [r7, #4]
    2a06:	3708      	adds	r7, #8
    2a08:	46bd      	mov	sp, r7
    2a0a:	bc90      	pop	{r4, r7}
    2a0c:	4770      	bx	lr
    2a0e:	bf00      	nop

00002a10 <vEventSetxTimeStamp>:
    2a10:	b580      	push	{r7, lr}
    2a12:	b086      	sub	sp, #24
    2a14:	af00      	add	r7, sp, #0
    2a16:	6078      	str	r0, [r7, #4]
    2a18:	687b      	ldr	r3, [r7, #4]
    2a1a:	617b      	str	r3, [r7, #20]
    2a1c:	697b      	ldr	r3, [r7, #20]
    2a1e:	685b      	ldr	r3, [r3, #4]
    2a20:	4618      	mov	r0, r3
    2a22:	f002 fdf3 	bl	560c <xTaskGetxLet>
    2a26:	6138      	str	r0, [r7, #16]
    2a28:	697b      	ldr	r3, [r7, #20]
    2a2a:	6adb      	ldr	r3, [r3, #44]	; 0x2c
    2a2c:	60fb      	str	r3, [r7, #12]
    2a2e:	f002 f95f 	bl	4cf0 <xTaskGetTickCount>
    2a32:	60b8      	str	r0, [r7, #8]
    2a34:	697b      	ldr	r3, [r7, #20]
    2a36:	68fa      	ldr	r2, [r7, #12]
    2a38:	609a      	str	r2, [r3, #8]
    2a3a:	697b      	ldr	r3, [r7, #20]
    2a3c:	6b5b      	ldr	r3, [r3, #52]	; 0x34
    2a3e:	2b01      	cmp	r3, #1
    2a40:	d103      	bne.n	2a4a <vEventSetxTimeStamp+0x3a>
    2a42:	697b      	ldr	r3, [r7, #20]
    2a44:	68fa      	ldr	r2, [r7, #12]
    2a46:	60da      	str	r2, [r3, #12]
    2a48:	e003      	b.n	2a52 <vEventSetxTimeStamp+0x42>
    2a4a:	697b      	ldr	r3, [r7, #20]
    2a4c:	6b1a      	ldr	r2, [r3, #48]	; 0x30
    2a4e:	697b      	ldr	r3, [r7, #20]
    2a50:	60da      	str	r2, [r3, #12]
    2a52:	697b      	ldr	r3, [r7, #20]
    2a54:	2200      	movs	r2, #0
    2a56:	611a      	str	r2, [r3, #16]
    2a58:	f240 03e8 	movw	r3, #232	; 0xe8
    2a5c:	f2c2 0300 	movt	r3, #8192	; 0x2000
    2a60:	681b      	ldr	r3, [r3, #0]
    2a62:	461a      	mov	r2, r3
    2a64:	697b      	ldr	r3, [r7, #20]
    2a66:	615a      	str	r2, [r3, #20]
    2a68:	f240 03e8 	movw	r3, #232	; 0xe8
    2a6c:	f2c2 0300 	movt	r3, #8192	; 0x2000
    2a70:	681b      	ldr	r3, [r3, #0]
    2a72:	1c5a      	adds	r2, r3, #1
    2a74:	f240 03e8 	movw	r3, #232	; 0xe8
    2a78:	f2c2 0300 	movt	r3, #8192	; 0x2000
    2a7c:	601a      	str	r2, [r3, #0]
    2a7e:	3718      	adds	r7, #24
    2a80:	46bd      	mov	sp, r7
    2a82:	bd80      	pop	{r7, pc}

00002a84 <vEventSetxData>:
    2a84:	b084      	sub	sp, #16
    2a86:	b490      	push	{r4, r7}
    2a88:	b082      	sub	sp, #8
    2a8a:	af00      	add	r7, sp, #0
    2a8c:	6078      	str	r0, [r7, #4]
    2a8e:	f107 0014 	add.w	r0, r7, #20
    2a92:	e880 000e 	stmia.w	r0, {r1, r2, r3}
    2a96:	687b      	ldr	r3, [r7, #4]
    2a98:	f103 042c 	add.w	r4, r3, #44	; 0x2c
    2a9c:	f107 0314 	add.w	r3, r7, #20
    2aa0:	cb0f      	ldmia	r3, {r0, r1, r2, r3}
    2aa2:	e884 000f 	stmia.w	r4, {r0, r1, r2, r3}
    2aa6:	3708      	adds	r7, #8
    2aa8:	46bd      	mov	sp, r7
    2aaa:	bc90      	pop	{r4, r7}
    2aac:	b004      	add	sp, #16
    2aae:	4770      	bx	lr

00002ab0 <pxGetReadyList>:
    2ab0:	b480      	push	{r7}
    2ab2:	af00      	add	r7, sp, #0
    2ab4:	f240 03d4 	movw	r3, #212	; 0xd4
    2ab8:	f2c2 0300 	movt	r3, #8192	; 0x2000
    2abc:	4618      	mov	r0, r3
    2abe:	46bd      	mov	sp, r7
    2ac0:	f85d 7b04 	ldr.w	r7, [sp], #4
    2ac4:	4770      	bx	lr
    2ac6:	bf00      	nop

00002ac8 <prvEventListGenericInsert>:
    2ac8:	b590      	push	{r4, r7, lr}
    2aca:	b091      	sub	sp, #68	; 0x44
    2acc:	af04      	add	r7, sp, #16
    2ace:	6078      	str	r0, [r7, #4]
    2ad0:	f240 03c0 	movw	r3, #192	; 0xc0
    2ad4:	f2c2 0300 	movt	r3, #8192	; 0x2000
    2ad8:	62bb      	str	r3, [r7, #40]	; 0x28
    2ada:	687b      	ldr	r3, [r7, #4]
    2adc:	68db      	ldr	r3, [r3, #12]
    2ade:	f107 0208 	add.w	r2, r7, #8
    2ae2:	4610      	mov	r0, r2
    2ae4:	4619      	mov	r1, r3
    2ae6:	f7ff ff6f 	bl	29c8 <xEventGetxTimeStamp>
    2aea:	68fb      	ldr	r3, [r7, #12]
    2aec:	f1b3 3fff 	cmp.w	r3, #4294967295
    2af0:	d103      	bne.n	2afa <prvEventListGenericInsert+0x32>
    2af2:	6abb      	ldr	r3, [r7, #40]	; 0x28
    2af4:	691b      	ldr	r3, [r3, #16]
    2af6:	62fb      	str	r3, [r7, #44]	; 0x2c
    2af8:	e021      	b.n	2b3e <prvEventListGenericInsert+0x76>
    2afa:	f002 fe2d 	bl	5758 <vPortEnterCritical>
    2afe:	6abb      	ldr	r3, [r7, #40]	; 0x28
    2b00:	3308      	adds	r3, #8
    2b02:	62fb      	str	r3, [r7, #44]	; 0x2c
    2b04:	e002      	b.n	2b0c <prvEventListGenericInsert+0x44>
    2b06:	6afb      	ldr	r3, [r7, #44]	; 0x2c
    2b08:	685b      	ldr	r3, [r3, #4]
    2b0a:	62fb      	str	r3, [r7, #44]	; 0x2c
    2b0c:	6afb      	ldr	r3, [r7, #44]	; 0x2c
    2b0e:	685b      	ldr	r3, [r3, #4]
    2b10:	68db      	ldr	r3, [r3, #12]
    2b12:	f107 0218 	add.w	r2, r7, #24
    2b16:	4610      	mov	r0, r2
    2b18:	4619      	mov	r1, r3
    2b1a:	f7ff ff55 	bl	29c8 <xEventGetxTimeStamp>
    2b1e:	466c      	mov	r4, sp
    2b20:	f107 0308 	add.w	r3, r7, #8
    2b24:	cb0f      	ldmia	r3, {r0, r1, r2, r3}
    2b26:	e884 000f 	stmia.w	r4, {r0, r1, r2, r3}
    2b2a:	f107 0318 	add.w	r3, r7, #24
    2b2e:	cb0f      	ldmia	r3, {r0, r1, r2, r3}
    2b30:	f7ff ff0c 	bl	294c <xCompareFunction>
    2b34:	4603      	mov	r3, r0
    2b36:	2b00      	cmp	r3, #0
    2b38:	d1e5      	bne.n	2b06 <prvEventListGenericInsert+0x3e>
    2b3a:	f002 fe23 	bl	5784 <vPortExitCritical>
    2b3e:	6afb      	ldr	r3, [r7, #44]	; 0x2c
    2b40:	685a      	ldr	r2, [r3, #4]
    2b42:	687b      	ldr	r3, [r7, #4]
    2b44:	605a      	str	r2, [r3, #4]
    2b46:	687b      	ldr	r3, [r7, #4]
    2b48:	685b      	ldr	r3, [r3, #4]
    2b4a:	687a      	ldr	r2, [r7, #4]
    2b4c:	609a      	str	r2, [r3, #8]
    2b4e:	687b      	ldr	r3, [r7, #4]
    2b50:	6afa      	ldr	r2, [r7, #44]	; 0x2c
    2b52:	609a      	str	r2, [r3, #8]
    2b54:	6afb      	ldr	r3, [r7, #44]	; 0x2c
    2b56:	687a      	ldr	r2, [r7, #4]
    2b58:	605a      	str	r2, [r3, #4]
    2b5a:	687b      	ldr	r3, [r7, #4]
    2b5c:	6aba      	ldr	r2, [r7, #40]	; 0x28
    2b5e:	611a      	str	r2, [r3, #16]
    2b60:	6abb      	ldr	r3, [r7, #40]	; 0x28
    2b62:	681b      	ldr	r3, [r3, #0]
    2b64:	1c5a      	adds	r2, r3, #1
    2b66:	6abb      	ldr	r3, [r7, #40]	; 0x28
    2b68:	601a      	str	r2, [r3, #0]
    2b6a:	3734      	adds	r7, #52	; 0x34
    2b6c:	46bd      	mov	sp, r7
    2b6e:	bd90      	pop	{r4, r7, pc}

00002b70 <vListIntialiseEventItem>:
    2b70:	b480      	push	{r7}
    2b72:	b083      	sub	sp, #12
    2b74:	af00      	add	r7, sp, #0
    2b76:	6078      	str	r0, [r7, #4]
    2b78:	6039      	str	r1, [r7, #0]
    2b7a:	683b      	ldr	r3, [r7, #0]
    2b7c:	687a      	ldr	r2, [r7, #4]
    2b7e:	60da      	str	r2, [r3, #12]
    2b80:	370c      	adds	r7, #12
    2b82:	46bd      	mov	sp, r7
    2b84:	f85d 7b04 	ldr.w	r7, [sp], #4
    2b88:	4770      	bx	lr
    2b8a:	bf00      	nop

00002b8c <vEventGenericCreate>:
    2b8c:	b084      	sub	sp, #16
    2b8e:	b580      	push	{r7, lr}
    2b90:	b088      	sub	sp, #32
    2b92:	af02      	add	r7, sp, #8
    2b94:	6078      	str	r0, [r7, #4]
    2b96:	f107 0024 	add.w	r0, r7, #36	; 0x24
    2b9a:	e880 000e 	stmia.w	r0, {r1, r2, r3}
    2b9e:	2300      	movs	r3, #0
    2ba0:	617b      	str	r3, [r7, #20]
    2ba2:	f002 fdd9 	bl	5758 <vPortEnterCritical>
    2ba6:	f240 0328 	movw	r3, #40	; 0x28
    2baa:	f2c2 0300 	movt	r3, #8192	; 0x2000
    2bae:	681b      	ldr	r3, [r3, #0]
    2bb0:	2b01      	cmp	r3, #1
    2bb2:	d12d      	bne.n	2c10 <vEventGenericCreate+0x84>
    2bb4:	f240 0328 	movw	r3, #40	; 0x28
    2bb8:	f2c2 0300 	movt	r3, #8192	; 0x2000
    2bbc:	2200      	movs	r2, #0
    2bbe:	601a      	str	r2, [r3, #0]
    2bc0:	f7ff fea2 	bl	2908 <prvInitialiseEventLists>
    2bc4:	203c      	movs	r0, #60	; 0x3c
    2bc6:	f002 fe41 	bl	584c <pvPortMalloc>
    2bca:	6138      	str	r0, [r7, #16]
    2bcc:	693b      	ldr	r3, [r7, #16]
    2bce:	2b00      	cmp	r3, #0
    2bd0:	d01e      	beq.n	2c10 <vEventGenericCreate+0x84>
    2bd2:	693b      	ldr	r3, [r7, #16]
    2bd4:	f04f 32ff 	mov.w	r2, #4294967295
    2bd8:	609a      	str	r2, [r3, #8]
    2bda:	693b      	ldr	r3, [r7, #16]
    2bdc:	f04f 32ff 	mov.w	r2, #4294967295
    2be0:	60da      	str	r2, [r3, #12]
    2be2:	693b      	ldr	r3, [r7, #16]
    2be4:	f04f 32ff 	mov.w	r2, #4294967295
    2be8:	611a      	str	r2, [r3, #16]
    2bea:	693b      	ldr	r3, [r7, #16]
    2bec:	f04f 32ff 	mov.w	r2, #4294967295
    2bf0:	615a      	str	r2, [r3, #20]
    2bf2:	693b      	ldr	r3, [r7, #16]
    2bf4:	3318      	adds	r3, #24
    2bf6:	6938      	ldr	r0, [r7, #16]
    2bf8:	4619      	mov	r1, r3
    2bfa:	f7ff ffb9 	bl	2b70 <vListIntialiseEventItem>
    2bfe:	693b      	ldr	r3, [r7, #16]
    2c00:	3318      	adds	r3, #24
    2c02:	f240 00c0 	movw	r0, #192	; 0xc0
    2c06:	f2c2 0000 	movt	r0, #8192	; 0x2000
    2c0a:	4619      	mov	r1, r3
    2c0c:	f000 ff92 	bl	3b34 <vListInsertEnd>
    2c10:	f002 fc3a 	bl	5488 <xTaskGetCurrentTaskHandle>
    2c14:	60f8      	str	r0, [r7, #12]
    2c16:	203c      	movs	r0, #60	; 0x3c
    2c18:	f002 fe18 	bl	584c <pvPortMalloc>
    2c1c:	6178      	str	r0, [r7, #20]
    2c1e:	697b      	ldr	r3, [r7, #20]
    2c20:	2b00      	cmp	r3, #0
    2c22:	d105      	bne.n	2c30 <vEventGenericCreate+0xa4>
    2c24:	f246 10a8 	movw	r0, #25000	; 0x61a8
    2c28:	f2c0 0000 	movt	r0, #0
    2c2c:	f003 f82c 	bl	5c88 <vPrintString>
    2c30:	697b      	ldr	r3, [r7, #20]
    2c32:	2b00      	cmp	r3, #0
    2c34:	d01b      	beq.n	2c6e <vEventGenericCreate+0xe2>
    2c36:	697b      	ldr	r3, [r7, #20]
    2c38:	68fa      	ldr	r2, [r7, #12]
    2c3a:	601a      	str	r2, [r3, #0]
    2c3c:	697b      	ldr	r3, [r7, #20]
    2c3e:	687a      	ldr	r2, [r7, #4]
    2c40:	605a      	str	r2, [r3, #4]
    2c42:	6b3b      	ldr	r3, [r7, #48]	; 0x30
    2c44:	9300      	str	r3, [sp, #0]
    2c46:	f107 0324 	add.w	r3, r7, #36	; 0x24
    2c4a:	cb0e      	ldmia	r3, {r1, r2, r3}
    2c4c:	6978      	ldr	r0, [r7, #20]
    2c4e:	f7ff ff19 	bl	2a84 <vEventSetxData>
    2c52:	6978      	ldr	r0, [r7, #20]
    2c54:	f7ff fedc 	bl	2a10 <vEventSetxTimeStamp>
    2c58:	697b      	ldr	r3, [r7, #20]
    2c5a:	3318      	adds	r3, #24
    2c5c:	6978      	ldr	r0, [r7, #20]
    2c5e:	4619      	mov	r1, r3
    2c60:	f7ff ff86 	bl	2b70 <vListIntialiseEventItem>
    2c64:	697b      	ldr	r3, [r7, #20]
    2c66:	3318      	adds	r3, #24
    2c68:	4618      	mov	r0, r3
    2c6a:	f7ff ff2d 	bl	2ac8 <prvEventListGenericInsert>
    2c6e:	f002 fd89 	bl	5784 <vPortExitCritical>
    2c72:	3718      	adds	r7, #24
    2c74:	46bd      	mov	sp, r7
    2c76:	e8bd 4080 	ldmia.w	sp!, {r7, lr}
    2c7a:	b004      	add	sp, #16
    2c7c:	4770      	bx	lr
    2c7e:	bf00      	nop

00002c80 <xEventListGenericTransit>:
    2c80:	b580      	push	{r7, lr}
    2c82:	b088      	sub	sp, #32
    2c84:	af00      	add	r7, sp, #0
    2c86:	6078      	str	r0, [r7, #4]
    2c88:	6039      	str	r1, [r7, #0]
    2c8a:	f240 03c0 	movw	r3, #192	; 0xc0
    2c8e:	f2c2 0300 	movt	r3, #8192	; 0x2000
    2c92:	681b      	ldr	r3, [r3, #0]
    2c94:	2b01      	cmp	r3, #1
    2c96:	d108      	bne.n	2caa <xEventListGenericTransit+0x2a>
    2c98:	687b      	ldr	r3, [r7, #4]
    2c9a:	2200      	movs	r2, #0
    2c9c:	601a      	str	r2, [r3, #0]
    2c9e:	683b      	ldr	r3, [r7, #0]
    2ca0:	2200      	movs	r2, #0
    2ca2:	601a      	str	r2, [r3, #0]
    2ca4:	f04f 33ff 	mov.w	r3, #4294967295
    2ca8:	e035      	b.n	2d16 <xEventListGenericTransit+0x96>
    2caa:	f240 03c0 	movw	r3, #192	; 0xc0
    2cae:	f2c2 0300 	movt	r3, #8192	; 0x2000
    2cb2:	68da      	ldr	r2, [r3, #12]
    2cb4:	687b      	ldr	r3, [r7, #4]
    2cb6:	601a      	str	r2, [r3, #0]
    2cb8:	f7ff fefa 	bl	2ab0 <pxGetReadyList>
    2cbc:	4602      	mov	r2, r0
    2cbe:	683b      	ldr	r3, [r7, #0]
    2cc0:	601a      	str	r2, [r3, #0]
    2cc2:	687b      	ldr	r3, [r7, #4]
    2cc4:	681b      	ldr	r3, [r3, #0]
    2cc6:	68db      	ldr	r3, [r3, #12]
    2cc8:	f107 020c 	add.w	r2, r7, #12
    2ccc:	4610      	mov	r0, r2
    2cce:	4619      	mov	r1, r3
    2cd0:	f7ff fe7a 	bl	29c8 <xEventGetxTimeStamp>
    2cd4:	f002 f80c 	bl	4cf0 <xTaskGetTickCount>
    2cd8:	61f8      	str	r0, [r7, #28]
    2cda:	693a      	ldr	r2, [r7, #16]
    2cdc:	69fb      	ldr	r3, [r7, #28]
    2cde:	429a      	cmp	r2, r3
    2ce0:	d907      	bls.n	2cf2 <xEventListGenericTransit+0x72>
    2ce2:	687b      	ldr	r3, [r7, #4]
    2ce4:	2200      	movs	r2, #0
    2ce6:	601a      	str	r2, [r3, #0]
    2ce8:	683b      	ldr	r3, [r7, #0]
    2cea:	2200      	movs	r2, #0
    2cec:	601a      	str	r2, [r3, #0]
    2cee:	2300      	movs	r3, #0
    2cf0:	e011      	b.n	2d16 <xEventListGenericTransit+0x96>
    2cf2:	f002 fd31 	bl	5758 <vPortEnterCritical>
    2cf6:	687b      	ldr	r3, [r7, #4]
    2cf8:	681b      	ldr	r3, [r3, #0]
    2cfa:	4618      	mov	r0, r3
    2cfc:	f000 ff7a 	bl	3bf4 <vListRemove>
    2d00:	683b      	ldr	r3, [r7, #0]
    2d02:	681a      	ldr	r2, [r3, #0]
    2d04:	687b      	ldr	r3, [r7, #4]
    2d06:	681b      	ldr	r3, [r3, #0]
    2d08:	4610      	mov	r0, r2
    2d0a:	4619      	mov	r1, r3
    2d0c:	f000 ff12 	bl	3b34 <vListInsertEnd>
    2d10:	f002 fd38 	bl	5784 <vPortExitCritical>
    2d14:	2301      	movs	r3, #1
    2d16:	4618      	mov	r0, r3
    2d18:	3720      	adds	r7, #32
    2d1a:	46bd      	mov	sp, r7
    2d1c:	bd80      	pop	{r7, pc}
    2d1e:	bf00      	nop

00002d20 <vEventGenericReceive>:
    2d20:	b580      	push	{r7, lr}
    2d22:	b088      	sub	sp, #32
    2d24:	af00      	add	r7, sp, #0
    2d26:	60f8      	str	r0, [r7, #12]
    2d28:	60b9      	str	r1, [r7, #8]
    2d2a:	607a      	str	r2, [r7, #4]
    2d2c:	687b      	ldr	r3, [r7, #4]
    2d2e:	61bb      	str	r3, [r7, #24]
    2d30:	687b      	ldr	r3, [r7, #4]
    2d32:	681b      	ldr	r3, [r3, #0]
    2d34:	2b00      	cmp	r3, #0
    2d36:	d103      	bne.n	2d40 <vEventGenericReceive+0x20>
    2d38:	68fb      	ldr	r3, [r7, #12]
    2d3a:	2200      	movs	r2, #0
    2d3c:	601a      	str	r2, [r3, #0]
    2d3e:	e04d      	b.n	2ddc <vEventGenericReceive+0xbc>
    2d40:	69bb      	ldr	r3, [r7, #24]
    2d42:	68db      	ldr	r3, [r3, #12]
    2d44:	61fb      	str	r3, [r7, #28]
    2d46:	f002 fd07 	bl	5758 <vPortEnterCritical>
    2d4a:	f002 fb9d 	bl	5488 <xTaskGetCurrentTaskHandle>
    2d4e:	6178      	str	r0, [r7, #20]
    2d50:	e01e      	b.n	2d90 <vEventGenericReceive+0x70>
    2d52:	69fb      	ldr	r3, [r7, #28]
    2d54:	68db      	ldr	r3, [r3, #12]
    2d56:	4618      	mov	r0, r3
    2d58:	f7ff fe1e 	bl	2998 <xEventGetpxSource>
    2d5c:	4602      	mov	r2, r0
    2d5e:	68bb      	ldr	r3, [r7, #8]
    2d60:	429a      	cmp	r2, r3
    2d62:	d112      	bne.n	2d8a <vEventGenericReceive+0x6a>
    2d64:	69fb      	ldr	r3, [r7, #28]
    2d66:	68db      	ldr	r3, [r3, #12]
    2d68:	4618      	mov	r0, r3
    2d6a:	f7ff fe21 	bl	29b0 <xEventGetpxDestination>
    2d6e:	4602      	mov	r2, r0
    2d70:	697b      	ldr	r3, [r7, #20]
    2d72:	429a      	cmp	r2, r3
    2d74:	d109      	bne.n	2d8a <vEventGenericReceive+0x6a>
    2d76:	69fb      	ldr	r3, [r7, #28]
    2d78:	68da      	ldr	r2, [r3, #12]
    2d7a:	68fb      	ldr	r3, [r7, #12]
    2d7c:	601a      	str	r2, [r3, #0]
    2d7e:	69f8      	ldr	r0, [r7, #28]
    2d80:	f000 ff38 	bl	3bf4 <vListRemove>
    2d84:	f002 fcfe 	bl	5784 <vPortExitCritical>
    2d88:	e028      	b.n	2ddc <vEventGenericReceive+0xbc>
    2d8a:	69fb      	ldr	r3, [r7, #28]
    2d8c:	685b      	ldr	r3, [r3, #4]
    2d8e:	61fb      	str	r3, [r7, #28]
    2d90:	69bb      	ldr	r3, [r7, #24]
    2d92:	691a      	ldr	r2, [r3, #16]
    2d94:	69fb      	ldr	r3, [r7, #28]
    2d96:	429a      	cmp	r2, r3
    2d98:	d1db      	bne.n	2d52 <vEventGenericReceive+0x32>
    2d9a:	69fb      	ldr	r3, [r7, #28]
    2d9c:	68db      	ldr	r3, [r3, #12]
    2d9e:	4618      	mov	r0, r3
    2da0:	f7ff fdfa 	bl	2998 <xEventGetpxSource>
    2da4:	4602      	mov	r2, r0
    2da6:	68bb      	ldr	r3, [r7, #8]
    2da8:	429a      	cmp	r2, r3
    2daa:	d112      	bne.n	2dd2 <vEventGenericReceive+0xb2>
    2dac:	69fb      	ldr	r3, [r7, #28]
    2dae:	68db      	ldr	r3, [r3, #12]
    2db0:	4618      	mov	r0, r3
    2db2:	f7ff fdfd 	bl	29b0 <xEventGetpxDestination>
    2db6:	4602      	mov	r2, r0
    2db8:	697b      	ldr	r3, [r7, #20]
    2dba:	429a      	cmp	r2, r3
    2dbc:	d109      	bne.n	2dd2 <vEventGenericReceive+0xb2>
    2dbe:	69fb      	ldr	r3, [r7, #28]
    2dc0:	68da      	ldr	r2, [r3, #12]
    2dc2:	68fb      	ldr	r3, [r7, #12]
    2dc4:	601a      	str	r2, [r3, #0]
    2dc6:	69f8      	ldr	r0, [r7, #28]
    2dc8:	f000 ff14 	bl	3bf4 <vListRemove>
    2dcc:	f002 fcda 	bl	5784 <vPortExitCritical>
    2dd0:	e004      	b.n	2ddc <vEventGenericReceive+0xbc>
    2dd2:	68fb      	ldr	r3, [r7, #12]
    2dd4:	2200      	movs	r2, #0
    2dd6:	601a      	str	r2, [r3, #0]
    2dd8:	f002 fcd4 	bl	5784 <vPortExitCritical>
    2ddc:	3720      	adds	r7, #32
    2dde:	46bd      	mov	sp, r7
    2de0:	bd80      	pop	{r7, pc}
    2de2:	bf00      	nop

00002de4 <vEventGenericDelete>:
    2de4:	b580      	push	{r7, lr}
    2de6:	b082      	sub	sp, #8
    2de8:	af00      	add	r7, sp, #0
    2dea:	6078      	str	r0, [r7, #4]
    2dec:	f002 fcb4 	bl	5758 <vPortEnterCritical>
    2df0:	6878      	ldr	r0, [r7, #4]
    2df2:	f002 fdef 	bl	59d4 <vPortFree>
    2df6:	f002 fcc5 	bl	5784 <vPortExitCritical>
    2dfa:	3708      	adds	r7, #8
    2dfc:	46bd      	mov	sp, r7
    2dfe:	bd80      	pop	{r7, pc}

00002e00 <vSemaphoreInitialise>:
    2e00:	b580      	push	{r7, lr}
    2e02:	b082      	sub	sp, #8
    2e04:	af00      	add	r7, sp, #0
    2e06:	2300      	movs	r3, #0
    2e08:	607b      	str	r3, [r7, #4]
    2e0a:	e033      	b.n	2e74 <vSemaphoreInitialise+0x74>
    2e0c:	2001      	movs	r0, #1
    2e0e:	2100      	movs	r1, #0
    2e10:	2203      	movs	r2, #3
    2e12:	f000 ff65 	bl	3ce0 <xQueueGenericCreate>
    2e16:	4601      	mov	r1, r0
    2e18:	f243 132c 	movw	r3, #12588	; 0x312c
    2e1c:	f2c2 0301 	movt	r3, #8193	; 0x2001
    2e20:	687a      	ldr	r2, [r7, #4]
    2e22:	f843 1022 	str.w	r1, [r3, r2, lsl #2]
    2e26:	f243 132c 	movw	r3, #12588	; 0x312c
    2e2a:	f2c2 0301 	movt	r3, #8193	; 0x2001
    2e2e:	687a      	ldr	r2, [r7, #4]
    2e30:	f853 3022 	ldr.w	r3, [r3, r2, lsl #2]
    2e34:	2b00      	cmp	r3, #0
    2e36:	d00c      	beq.n	2e52 <vSemaphoreInitialise+0x52>
    2e38:	f243 132c 	movw	r3, #12588	; 0x312c
    2e3c:	f2c2 0301 	movt	r3, #8193	; 0x2001
    2e40:	687a      	ldr	r2, [r7, #4]
    2e42:	f853 3022 	ldr.w	r3, [r3, r2, lsl #2]
    2e46:	4618      	mov	r0, r3
    2e48:	2100      	movs	r1, #0
    2e4a:	2200      	movs	r2, #0
    2e4c:	2300      	movs	r3, #0
    2e4e:	f000 ffd5 	bl	3dfc <xQueueGenericSend>
    2e52:	f243 132c 	movw	r3, #12588	; 0x312c
    2e56:	f2c2 0301 	movt	r3, #8193	; 0x2001
    2e5a:	687a      	ldr	r2, [r7, #4]
    2e5c:	f853 3022 	ldr.w	r3, [r3, r2, lsl #2]
    2e60:	4618      	mov	r0, r3
    2e62:	2100      	movs	r1, #0
    2e64:	f04f 32ff 	mov.w	r2, #4294967295
    2e68:	2300      	movs	r3, #0
    2e6a:	f001 f88d 	bl	3f88 <xQueueGenericReceive>
    2e6e:	687b      	ldr	r3, [r7, #4]
    2e70:	3301      	adds	r3, #1
    2e72:	607b      	str	r3, [r7, #4]
    2e74:	687b      	ldr	r3, [r7, #4]
    2e76:	2b03      	cmp	r3, #3
    2e78:	ddc8      	ble.n	2e0c <vSemaphoreInitialise+0xc>
    2e7a:	3708      	adds	r7, #8
    2e7c:	46bd      	mov	sp, r7
    2e7e:	bd80      	pop	{r7, pc}

00002e80 <vParameterInitialise>:
    2e80:	b480      	push	{r7}
    2e82:	b085      	sub	sp, #20
    2e84:	af00      	add	r7, sp, #0
    2e86:	2300      	movs	r3, #0
    2e88:	60fb      	str	r3, [r7, #12]
    2e8a:	e061      	b.n	2f50 <vParameterInitialise+0xd0>
    2e8c:	f642 7330 	movw	r3, #12080	; 0x2f30
    2e90:	f2c2 0301 	movt	r3, #8193	; 0x2001
    2e94:	68fa      	ldr	r2, [r7, #12]
    2e96:	216c      	movs	r1, #108	; 0x6c
    2e98:	fb01 f202 	mul.w	r2, r1, r2
    2e9c:	4413      	add	r3, r2
    2e9e:	68fa      	ldr	r2, [r7, #12]
    2ea0:	601a      	str	r2, [r3, #0]
    2ea2:	f642 7330 	movw	r3, #12080	; 0x2f30
    2ea6:	f2c2 0301 	movt	r3, #8193	; 0x2001
    2eaa:	68fa      	ldr	r2, [r7, #12]
    2eac:	216c      	movs	r1, #108	; 0x6c
    2eae:	fb01 f202 	mul.w	r2, r1, r2
    2eb2:	4413      	add	r3, r2
    2eb4:	3304      	adds	r3, #4
    2eb6:	2200      	movs	r2, #0
    2eb8:	601a      	str	r2, [r3, #0]
    2eba:	f642 7330 	movw	r3, #12080	; 0x2f30
    2ebe:	f2c2 0301 	movt	r3, #8193	; 0x2001
    2ec2:	68fa      	ldr	r2, [r7, #12]
    2ec4:	216c      	movs	r1, #108	; 0x6c
    2ec6:	fb01 f202 	mul.w	r2, r1, r2
    2eca:	4413      	add	r3, r2
    2ecc:	3308      	adds	r3, #8
    2ece:	2200      	movs	r2, #0
    2ed0:	601a      	str	r2, [r3, #0]
    2ed2:	f243 133c 	movw	r3, #12604	; 0x313c
    2ed6:	f2c2 0301 	movt	r3, #8193	; 0x2001
    2eda:	68fa      	ldr	r2, [r7, #12]
    2edc:	f853 2022 	ldr.w	r2, [r3, r2, lsl #2]
    2ee0:	f642 7330 	movw	r3, #12080	; 0x2f30
    2ee4:	f2c2 0301 	movt	r3, #8193	; 0x2001
    2ee8:	68f9      	ldr	r1, [r7, #12]
    2eea:	206c      	movs	r0, #108	; 0x6c
    2eec:	fb00 f101 	mul.w	r1, r0, r1
    2ef0:	440b      	add	r3, r1
    2ef2:	335c      	adds	r3, #92	; 0x5c
    2ef4:	601a      	str	r2, [r3, #0]
    2ef6:	f243 03e4 	movw	r3, #12516	; 0x30e4
    2efa:	f2c2 0301 	movt	r3, #8193	; 0x2001
    2efe:	68fa      	ldr	r2, [r7, #12]
    2f00:	f853 2022 	ldr.w	r2, [r3, r2, lsl #2]
    2f04:	f642 7330 	movw	r3, #12080	; 0x2f30
    2f08:	f2c2 0301 	movt	r3, #8193	; 0x2001
    2f0c:	68f9      	ldr	r1, [r7, #12]
    2f0e:	206c      	movs	r0, #108	; 0x6c
    2f10:	fb00 f101 	mul.w	r1, r0, r1
    2f14:	440b      	add	r3, r1
    2f16:	3368      	adds	r3, #104	; 0x68
    2f18:	601a      	str	r2, [r3, #0]
    2f1a:	f243 03e4 	movw	r3, #12516	; 0x30e4
    2f1e:	f2c2 0301 	movt	r3, #8193	; 0x2001
    2f22:	68fa      	ldr	r2, [r7, #12]
    2f24:	f853 2022 	ldr.w	r2, [r3, r2, lsl #2]
    2f28:	f243 03f4 	movw	r3, #12532	; 0x30f4
    2f2c:	f2c2 0301 	movt	r3, #8193	; 0x2001
    2f30:	f853 2022 	ldr.w	r2, [r3, r2, lsl #2]
    2f34:	f642 7330 	movw	r3, #12080	; 0x2f30
    2f38:	f2c2 0301 	movt	r3, #8193	; 0x2001
    2f3c:	68f9      	ldr	r1, [r7, #12]
    2f3e:	206c      	movs	r0, #108	; 0x6c
    2f40:	fb00 f101 	mul.w	r1, r0, r1
    2f44:	440b      	add	r3, r1
    2f46:	3364      	adds	r3, #100	; 0x64
    2f48:	601a      	str	r2, [r3, #0]
    2f4a:	68fb      	ldr	r3, [r7, #12]
    2f4c:	3301      	adds	r3, #1
    2f4e:	60fb      	str	r3, [r7, #12]
    2f50:	68fb      	ldr	r3, [r7, #12]
    2f52:	2b03      	cmp	r3, #3
    2f54:	dd9a      	ble.n	2e8c <vParameterInitialise+0xc>
    2f56:	2300      	movs	r3, #0
    2f58:	60fb      	str	r3, [r7, #12]
    2f5a:	e080      	b.n	305e <vParameterInitialise+0x1de>
    2f5c:	f243 02f8 	movw	r2, #12536	; 0x30f8
    2f60:	f2c2 0201 	movt	r2, #8193	; 0x2001
    2f64:	68f9      	ldr	r1, [r7, #12]
    2f66:	460b      	mov	r3, r1
    2f68:	005b      	lsls	r3, r3, #1
    2f6a:	440b      	add	r3, r1
    2f6c:	009b      	lsls	r3, r3, #2
    2f6e:	4413      	add	r3, r2
    2f70:	3304      	adds	r3, #4
    2f72:	681b      	ldr	r3, [r3, #0]
    2f74:	60bb      	str	r3, [r7, #8]
    2f76:	f243 02f8 	movw	r2, #12536	; 0x30f8
    2f7a:	f2c2 0201 	movt	r2, #8193	; 0x2001
    2f7e:	68f9      	ldr	r1, [r7, #12]
    2f80:	460b      	mov	r3, r1
    2f82:	005b      	lsls	r3, r3, #1
    2f84:	440b      	add	r3, r1
    2f86:	009b      	lsls	r3, r3, #2
    2f88:	4413      	add	r3, r2
    2f8a:	3308      	adds	r3, #8
    2f8c:	681b      	ldr	r3, [r3, #0]
    2f8e:	607b      	str	r3, [r7, #4]
    2f90:	f642 7330 	movw	r3, #12080	; 0x2f30
    2f94:	f2c2 0301 	movt	r3, #8193	; 0x2001
    2f98:	68ba      	ldr	r2, [r7, #8]
    2f9a:	216c      	movs	r1, #108	; 0x6c
    2f9c:	fb01 f202 	mul.w	r2, r1, r2
    2fa0:	4413      	add	r3, r2
    2fa2:	3308      	adds	r3, #8
    2fa4:	6818      	ldr	r0, [r3, #0]
    2fa6:	f642 7230 	movw	r2, #12080	; 0x2f30
    2faa:	f2c2 0201 	movt	r2, #8193	; 0x2001
    2fae:	68b9      	ldr	r1, [r7, #8]
    2fb0:	460b      	mov	r3, r1
    2fb2:	005b      	lsls	r3, r3, #1
    2fb4:	440b      	add	r3, r1
    2fb6:	00d9      	lsls	r1, r3, #3
    2fb8:	440b      	add	r3, r1
    2fba:	4403      	add	r3, r0
    2fbc:	330c      	adds	r3, #12
    2fbe:	009b      	lsls	r3, r3, #2
    2fc0:	4413      	add	r3, r2
    2fc2:	687a      	ldr	r2, [r7, #4]
    2fc4:	605a      	str	r2, [r3, #4]
    2fc6:	f642 7330 	movw	r3, #12080	; 0x2f30
    2fca:	f2c2 0301 	movt	r3, #8193	; 0x2001
    2fce:	68ba      	ldr	r2, [r7, #8]
    2fd0:	216c      	movs	r1, #108	; 0x6c
    2fd2:	fb01 f202 	mul.w	r2, r1, r2
    2fd6:	4413      	add	r3, r2
    2fd8:	3308      	adds	r3, #8
    2fda:	681b      	ldr	r3, [r3, #0]
    2fdc:	1c5a      	adds	r2, r3, #1
    2fde:	f642 7330 	movw	r3, #12080	; 0x2f30
    2fe2:	f2c2 0301 	movt	r3, #8193	; 0x2001
    2fe6:	68b9      	ldr	r1, [r7, #8]
    2fe8:	206c      	movs	r0, #108	; 0x6c
    2fea:	fb00 f101 	mul.w	r1, r0, r1
    2fee:	440b      	add	r3, r1
    2ff0:	3308      	adds	r3, #8
    2ff2:	601a      	str	r2, [r3, #0]
    2ff4:	f642 7330 	movw	r3, #12080	; 0x2f30
    2ff8:	f2c2 0301 	movt	r3, #8193	; 0x2001
    2ffc:	687a      	ldr	r2, [r7, #4]
    2ffe:	216c      	movs	r1, #108	; 0x6c
    3000:	fb01 f202 	mul.w	r2, r1, r2
    3004:	4413      	add	r3, r2
    3006:	3304      	adds	r3, #4
    3008:	6818      	ldr	r0, [r3, #0]
    300a:	f642 7230 	movw	r2, #12080	; 0x2f30
    300e:	f2c2 0201 	movt	r2, #8193	; 0x2001
    3012:	6879      	ldr	r1, [r7, #4]
    3014:	460b      	mov	r3, r1
    3016:	005b      	lsls	r3, r3, #1
    3018:	440b      	add	r3, r1
    301a:	00d9      	lsls	r1, r3, #3
    301c:	440b      	add	r3, r1
    301e:	4403      	add	r3, r0
    3020:	3302      	adds	r3, #2
    3022:	009b      	lsls	r3, r3, #2
    3024:	4413      	add	r3, r2
    3026:	68ba      	ldr	r2, [r7, #8]
    3028:	605a      	str	r2, [r3, #4]
    302a:	f642 7330 	movw	r3, #12080	; 0x2f30
    302e:	f2c2 0301 	movt	r3, #8193	; 0x2001
    3032:	687a      	ldr	r2, [r7, #4]
    3034:	216c      	movs	r1, #108	; 0x6c
    3036:	fb01 f202 	mul.w	r2, r1, r2
    303a:	4413      	add	r3, r2
    303c:	3304      	adds	r3, #4
    303e:	681b      	ldr	r3, [r3, #0]
    3040:	1c5a      	adds	r2, r3, #1
    3042:	f642 7330 	movw	r3, #12080	; 0x2f30
    3046:	f2c2 0301 	movt	r3, #8193	; 0x2001
    304a:	6879      	ldr	r1, [r7, #4]
    304c:	206c      	movs	r0, #108	; 0x6c
    304e:	fb00 f101 	mul.w	r1, r0, r1
    3052:	440b      	add	r3, r1
    3054:	3304      	adds	r3, #4
    3056:	601a      	str	r2, [r3, #0]
    3058:	68fb      	ldr	r3, [r7, #12]
    305a:	3301      	adds	r3, #1
    305c:	60fb      	str	r3, [r7, #12]
    305e:	f243 03f8 	movw	r3, #12536	; 0x30f8
    3062:	f2c2 0301 	movt	r3, #8193	; 0x2001
    3066:	681a      	ldr	r2, [r3, #0]
    3068:	68fb      	ldr	r3, [r7, #12]
    306a:	429a      	cmp	r2, r3
    306c:	f73f af76 	bgt.w	2f5c <vParameterInitialise+0xdc>
    3070:	3714      	adds	r7, #20
    3072:	46bd      	mov	sp, r7
    3074:	f85d 7b04 	ldr.w	r7, [sp], #4
    3078:	4770      	bx	lr
    307a:	bf00      	nop

0000307c <vTaskDelayLET>:
    307c:	b580      	push	{r7, lr}
    307e:	b084      	sub	sp, #16
    3080:	af00      	add	r7, sp, #0
    3082:	f002 fa01 	bl	5488 <xTaskGetCurrentTaskHandle>
    3086:	60b8      	str	r0, [r7, #8]
    3088:	68b8      	ldr	r0, [r7, #8]
    308a:	f002 fab3 	bl	55f4 <xTaskGetxStartTime>
    308e:	6078      	str	r0, [r7, #4]
    3090:	68b8      	ldr	r0, [r7, #8]
    3092:	f002 fabb 	bl	560c <xTaskGetxLet>
    3096:	4602      	mov	r2, r0
    3098:	687b      	ldr	r3, [r7, #4]
    309a:	4413      	add	r3, r2
    309c:	603b      	str	r3, [r7, #0]
    309e:	f001 fe27 	bl	4cf0 <xTaskGetTickCount>
    30a2:	60f8      	str	r0, [r7, #12]
    30a4:	e002      	b.n	30ac <vTaskDelayLET+0x30>
    30a6:	f001 fe23 	bl	4cf0 <xTaskGetTickCount>
    30aa:	60f8      	str	r0, [r7, #12]
    30ac:	68fa      	ldr	r2, [r7, #12]
    30ae:	683b      	ldr	r3, [r7, #0]
    30b0:	429a      	cmp	r2, r3
    30b2:	d3f8      	bcc.n	30a6 <vTaskDelayLET+0x2a>
    30b4:	3710      	adds	r7, #16
    30b6:	46bd      	mov	sp, r7
    30b8:	bd80      	pop	{r7, pc}
    30ba:	bf00      	nop

000030bc <vEventReceiveAll>:
    30bc:	e92d 41f0 	stmdb	sp!, {r4, r5, r6, r7, r8, lr}
    30c0:	b088      	sub	sp, #32
    30c2:	af00      	add	r7, sp, #0
    30c4:	6078      	str	r0, [r7, #4]
    30c6:	6039      	str	r1, [r7, #0]
    30c8:	4669      	mov	r1, sp
    30ca:	4688      	mov	r8, r1
    30cc:	6879      	ldr	r1, [r7, #4]
    30ce:	6849      	ldr	r1, [r1, #4]
    30d0:	61b9      	str	r1, [r7, #24]
    30d2:	69be      	ldr	r6, [r7, #24]
    30d4:	1e71      	subs	r1, r6, #1
    30d6:	6179      	str	r1, [r7, #20]
    30d8:	4631      	mov	r1, r6
    30da:	4608      	mov	r0, r1
    30dc:	f04f 0100 	mov.w	r1, #0
    30e0:	014d      	lsls	r5, r1, #5
    30e2:	ea45 65d0 	orr.w	r5, r5, r0, lsr #27
    30e6:	0144      	lsls	r4, r0, #5
    30e8:	4631      	mov	r1, r6
    30ea:	4608      	mov	r0, r1
    30ec:	f04f 0100 	mov.w	r1, #0
    30f0:	014b      	lsls	r3, r1, #5
    30f2:	ea43 63d0 	orr.w	r3, r3, r0, lsr #27
    30f6:	0142      	lsls	r2, r0, #5
    30f8:	4633      	mov	r3, r6
    30fa:	009b      	lsls	r3, r3, #2
    30fc:	3303      	adds	r3, #3
    30fe:	3307      	adds	r3, #7
    3100:	08db      	lsrs	r3, r3, #3
    3102:	00db      	lsls	r3, r3, #3
    3104:	ebad 0d03 	sub.w	sp, sp, r3
    3108:	466b      	mov	r3, sp
    310a:	3303      	adds	r3, #3
    310c:	089b      	lsrs	r3, r3, #2
    310e:	009b      	lsls	r3, r3, #2
    3110:	613b      	str	r3, [r7, #16]
    3112:	687b      	ldr	r3, [r7, #4]
    3114:	681b      	ldr	r3, [r3, #0]
    3116:	60fb      	str	r3, [r7, #12]
    3118:	f243 132c 	movw	r3, #12588	; 0x312c
    311c:	f2c2 0301 	movt	r3, #8193	; 0x2001
    3120:	68fa      	ldr	r2, [r7, #12]
    3122:	f853 3022 	ldr.w	r3, [r3, r2, lsl #2]
    3126:	4618      	mov	r0, r3
    3128:	2100      	movs	r1, #0
    312a:	f04f 32ff 	mov.w	r2, #4294967295
    312e:	2300      	movs	r3, #0
    3130:	f000 ff2a 	bl	3f88 <xQueueGenericReceive>
    3134:	f001 fddc 	bl	4cf0 <xTaskGetTickCount>
    3138:	60b8      	str	r0, [r7, #8]
    313a:	f243 134c 	movw	r3, #12620	; 0x314c
    313e:	f2c2 0301 	movt	r3, #8193	; 0x2001
    3142:	68fa      	ldr	r2, [r7, #12]
    3144:	f853 3022 	ldr.w	r3, [r3, r2, lsl #2]
    3148:	4618      	mov	r0, r3
    314a:	68b9      	ldr	r1, [r7, #8]
    314c:	f002 fa6a 	bl	5624 <vTaskSetxStartTime>
    3150:	f44f 7096 	mov.w	r0, #300	; 0x12c
    3154:	f002 fdb2 	bl	5cbc <vPrintNumber>
    3158:	2300      	movs	r3, #0
    315a:	61fb      	str	r3, [r7, #28]
    315c:	e024      	b.n	31a8 <vEventReceiveAll+0xec>
    315e:	687a      	ldr	r2, [r7, #4]
    3160:	69fb      	ldr	r3, [r7, #28]
    3162:	3302      	adds	r3, #2
    3164:	009b      	lsls	r3, r3, #2
    3166:	4413      	add	r3, r2
    3168:	6859      	ldr	r1, [r3, #4]
    316a:	693b      	ldr	r3, [r7, #16]
    316c:	69fa      	ldr	r2, [r7, #28]
    316e:	f843 1022 	str.w	r1, [r3, r2, lsl #2]
    3172:	69fb      	ldr	r3, [r7, #28]
    3174:	009b      	lsls	r3, r3, #2
    3176:	683a      	ldr	r2, [r7, #0]
    3178:	18d1      	adds	r1, r2, r3
    317a:	693b      	ldr	r3, [r7, #16]
    317c:	69fa      	ldr	r2, [r7, #28]
    317e:	f853 2022 	ldr.w	r2, [r3, r2, lsl #2]
    3182:	f243 134c 	movw	r3, #12620	; 0x314c
    3186:	f2c2 0301 	movt	r3, #8193	; 0x2001
    318a:	f853 2022 	ldr.w	r2, [r3, r2, lsl #2]
    318e:	f243 03e0 	movw	r3, #12512	; 0x30e0
    3192:	f2c2 0301 	movt	r3, #8193	; 0x2001
    3196:	681b      	ldr	r3, [r3, #0]
    3198:	4608      	mov	r0, r1
    319a:	4611      	mov	r1, r2
    319c:	461a      	mov	r2, r3
    319e:	f7ff fdbf 	bl	2d20 <vEventGenericReceive>
    31a2:	69fb      	ldr	r3, [r7, #28]
    31a4:	3301      	adds	r3, #1
    31a6:	61fb      	str	r3, [r7, #28]
    31a8:	69fa      	ldr	r2, [r7, #28]
    31aa:	69bb      	ldr	r3, [r7, #24]
    31ac:	429a      	cmp	r2, r3
    31ae:	dbd6      	blt.n	315e <vEventReceiveAll+0xa2>
    31b0:	f44f 7096 	mov.w	r0, #300	; 0x12c
    31b4:	f002 fd82 	bl	5cbc <vPrintNumber>
    31b8:	46c5      	mov	sp, r8
    31ba:	3720      	adds	r7, #32
    31bc:	46bd      	mov	sp, r7
    31be:	e8bd 81f0 	ldmia.w	sp!, {r4, r5, r6, r7, r8, pc}
    31c2:	bf00      	nop

000031c4 <vEventDeleteAll>:
    31c4:	b580      	push	{r7, lr}
    31c6:	b084      	sub	sp, #16
    31c8:	af00      	add	r7, sp, #0
    31ca:	6078      	str	r0, [r7, #4]
    31cc:	6039      	str	r1, [r7, #0]
    31ce:	687b      	ldr	r3, [r7, #4]
    31d0:	685b      	ldr	r3, [r3, #4]
    31d2:	60bb      	str	r3, [r7, #8]
    31d4:	2300      	movs	r3, #0
    31d6:	60fb      	str	r3, [r7, #12]
    31d8:	e00a      	b.n	31f0 <vEventDeleteAll+0x2c>
    31da:	68fb      	ldr	r3, [r7, #12]
    31dc:	009b      	lsls	r3, r3, #2
    31de:	683a      	ldr	r2, [r7, #0]
    31e0:	4413      	add	r3, r2
    31e2:	681b      	ldr	r3, [r3, #0]
    31e4:	4618      	mov	r0, r3
    31e6:	f7ff fdfd 	bl	2de4 <vEventGenericDelete>
    31ea:	68fb      	ldr	r3, [r7, #12]
    31ec:	3301      	adds	r3, #1
    31ee:	60fb      	str	r3, [r7, #12]
    31f0:	68fa      	ldr	r2, [r7, #12]
    31f2:	68bb      	ldr	r3, [r7, #8]
    31f4:	429a      	cmp	r2, r3
    31f6:	dbf0      	blt.n	31da <vEventDeleteAll+0x16>
    31f8:	3710      	adds	r7, #16
    31fa:	46bd      	mov	sp, r7
    31fc:	bd80      	pop	{r7, pc}
    31fe:	bf00      	nop

00003200 <vEventCreateAll>:
    3200:	e92d 41f0 	stmdb	sp!, {r4, r5, r6, r7, r8, lr}
    3204:	b08a      	sub	sp, #40	; 0x28
    3206:	af02      	add	r7, sp, #8
    3208:	6078      	str	r0, [r7, #4]
    320a:	6039      	str	r1, [r7, #0]
    320c:	4669      	mov	r1, sp
    320e:	4688      	mov	r8, r1
    3210:	6879      	ldr	r1, [r7, #4]
    3212:	6889      	ldr	r1, [r1, #8]
    3214:	61b9      	str	r1, [r7, #24]
    3216:	6879      	ldr	r1, [r7, #4]
    3218:	6809      	ldr	r1, [r1, #0]
    321a:	6179      	str	r1, [r7, #20]
    321c:	6879      	ldr	r1, [r7, #4]
    321e:	6e49      	ldr	r1, [r1, #100]	; 0x64
    3220:	6139      	str	r1, [r7, #16]
    3222:	69be      	ldr	r6, [r7, #24]
    3224:	1e71      	subs	r1, r6, #1
    3226:	60f9      	str	r1, [r7, #12]
    3228:	4631      	mov	r1, r6
    322a:	4608      	mov	r0, r1
    322c:	f04f 0100 	mov.w	r1, #0
    3230:	014d      	lsls	r5, r1, #5
    3232:	ea45 65d0 	orr.w	r5, r5, r0, lsr #27
    3236:	0144      	lsls	r4, r0, #5
    3238:	4631      	mov	r1, r6
    323a:	4608      	mov	r0, r1
    323c:	f04f 0100 	mov.w	r1, #0
    3240:	014b      	lsls	r3, r1, #5
    3242:	ea43 63d0 	orr.w	r3, r3, r0, lsr #27
    3246:	0142      	lsls	r2, r0, #5
    3248:	4633      	mov	r3, r6
    324a:	009b      	lsls	r3, r3, #2
    324c:	3303      	adds	r3, #3
    324e:	3307      	adds	r3, #7
    3250:	08db      	lsrs	r3, r3, #3
    3252:	00db      	lsls	r3, r3, #3
    3254:	ebad 0d03 	sub.w	sp, sp, r3
    3258:	ab02      	add	r3, sp, #8
    325a:	3303      	adds	r3, #3
    325c:	089b      	lsrs	r3, r3, #2
    325e:	009b      	lsls	r3, r3, #2
    3260:	60bb      	str	r3, [r7, #8]
    3262:	2300      	movs	r3, #0
    3264:	61fb      	str	r3, [r7, #28]
    3266:	e033      	b.n	32d0 <vEventCreateAll+0xd0>
    3268:	687a      	ldr	r2, [r7, #4]
    326a:	69fb      	ldr	r3, [r7, #28]
    326c:	330c      	adds	r3, #12
    326e:	009b      	lsls	r3, r3, #2
    3270:	4413      	add	r3, r2
    3272:	6859      	ldr	r1, [r3, #4]
    3274:	68bb      	ldr	r3, [r7, #8]
    3276:	69fa      	ldr	r2, [r7, #28]
    3278:	f843 1022 	str.w	r1, [r3, r2, lsl #2]
    327c:	68bb      	ldr	r3, [r7, #8]
    327e:	69fa      	ldr	r2, [r7, #28]
    3280:	f853 2022 	ldr.w	r2, [r3, r2, lsl #2]
    3284:	697b      	ldr	r3, [r7, #20]
    3286:	429a      	cmp	r2, r3
    3288:	dc06      	bgt.n	3298 <vEventCreateAll+0x98>
    328a:	69fb      	ldr	r3, [r7, #28]
    328c:	011b      	lsls	r3, r3, #4
    328e:	683a      	ldr	r2, [r7, #0]
    3290:	4413      	add	r3, r2
    3292:	2201      	movs	r2, #1
    3294:	609a      	str	r2, [r3, #8]
    3296:	e005      	b.n	32a4 <vEventCreateAll+0xa4>
    3298:	69fb      	ldr	r3, [r7, #28]
    329a:	011b      	lsls	r3, r3, #4
    329c:	683a      	ldr	r2, [r7, #0]
    329e:	4413      	add	r3, r2
    32a0:	2200      	movs	r2, #0
    32a2:	609a      	str	r2, [r3, #8]
    32a4:	68bb      	ldr	r3, [r7, #8]
    32a6:	69fa      	ldr	r2, [r7, #28]
    32a8:	f853 2022 	ldr.w	r2, [r3, r2, lsl #2]
    32ac:	f243 134c 	movw	r3, #12620	; 0x314c
    32b0:	f2c2 0301 	movt	r3, #8193	; 0x2001
    32b4:	f853 0022 	ldr.w	r0, [r3, r2, lsl #2]
    32b8:	69fb      	ldr	r3, [r7, #28]
    32ba:	011b      	lsls	r3, r3, #4
    32bc:	683a      	ldr	r2, [r7, #0]
    32be:	4413      	add	r3, r2
    32c0:	68da      	ldr	r2, [r3, #12]
    32c2:	9200      	str	r2, [sp, #0]
    32c4:	cb0e      	ldmia	r3, {r1, r2, r3}
    32c6:	f7ff fc61 	bl	2b8c <vEventGenericCreate>
    32ca:	69fb      	ldr	r3, [r7, #28]
    32cc:	3301      	adds	r3, #1
    32ce:	61fb      	str	r3, [r7, #28]
    32d0:	69fa      	ldr	r2, [r7, #28]
    32d2:	69bb      	ldr	r3, [r7, #24]
    32d4:	429a      	cmp	r2, r3
    32d6:	dbc7      	blt.n	3268 <vEventCreateAll+0x68>
    32d8:	46c5      	mov	sp, r8
    32da:	3720      	adds	r7, #32
    32dc:	46bd      	mov	sp, r7
    32de:	e8bd 81f0 	ldmia.w	sp!, {r4, r5, r6, r7, r8, pc}
    32e2:	bf00      	nop

000032e4 <vDoActuator>:
    32e4:	b480      	push	{r7}
    32e6:	b083      	sub	sp, #12
    32e8:	af00      	add	r7, sp, #0
    32ea:	6078      	str	r0, [r7, #4]
    32ec:	370c      	adds	r7, #12
    32ee:	46bd      	mov	sp, r7
    32f0:	f85d 7b04 	ldr.w	r7, [sp], #4
    32f4:	4770      	bx	lr
    32f6:	bf00      	nop

000032f8 <vDoSensor>:
    32f8:	b480      	push	{r7}
    32fa:	af00      	add	r7, sp, #0
    32fc:	46bd      	mov	sp, r7
    32fe:	f85d 7b04 	ldr.w	r7, [sp], #4
    3302:	4770      	bx	lr

00003304 <vSensor>:
    3304:	e92d 4fb0 	stmdb	sp!, {r4, r5, r7, r8, r9, sl, fp, lr}
    3308:	b092      	sub	sp, #72	; 0x48
    330a:	af00      	add	r7, sp, #0
    330c:	60f8      	str	r0, [r7, #12]
    330e:	2301      	movs	r3, #1
    3310:	643b      	str	r3, [r7, #64]	; 0x40
    3312:	2301      	movs	r3, #1
    3314:	63fb      	str	r3, [r7, #60]	; 0x3c
    3316:	68fb      	ldr	r3, [r7, #12]
    3318:	63bb      	str	r3, [r7, #56]	; 0x38
    331a:	6bbb      	ldr	r3, [r7, #56]	; 0x38
    331c:	689b      	ldr	r3, [r3, #8]
    331e:	637b      	str	r3, [r7, #52]	; 0x34
    3320:	6bbb      	ldr	r3, [r7, #56]	; 0x38
    3322:	681b      	ldr	r3, [r3, #0]
    3324:	633b      	str	r3, [r7, #48]	; 0x30
    3326:	6bbb      	ldr	r3, [r7, #56]	; 0x38
    3328:	6ddb      	ldr	r3, [r3, #92]	; 0x5c
    332a:	62fb      	str	r3, [r7, #44]	; 0x2c
    332c:	6bbb      	ldr	r3, [r7, #56]	; 0x38
    332e:	6e5b      	ldr	r3, [r3, #100]	; 0x64
    3330:	62bb      	str	r3, [r7, #40]	; 0x28
    3332:	f243 134c 	movw	r3, #12620	; 0x314c
    3336:	f2c2 0301 	movt	r3, #8193	; 0x2001
    333a:	6b3a      	ldr	r2, [r7, #48]	; 0x30
    333c:	f853 3022 	ldr.w	r3, [r3, r2, lsl #2]
    3340:	4618      	mov	r0, r3
    3342:	6af9      	ldr	r1, [r7, #44]	; 0x2c
    3344:	f002 f97c 	bl	5640 <vTaskSetxLet>
    3348:	6b79      	ldr	r1, [r7, #52]	; 0x34
    334a:	1e4b      	subs	r3, r1, #1
    334c:	627b      	str	r3, [r7, #36]	; 0x24
    334e:	460b      	mov	r3, r1
    3350:	461a      	mov	r2, r3
    3352:	f04f 0300 	mov.w	r3, #0
    3356:	0158      	lsls	r0, r3, #5
    3358:	6078      	str	r0, [r7, #4]
    335a:	6878      	ldr	r0, [r7, #4]
    335c:	ea40 60d2 	orr.w	r0, r0, r2, lsr #27
    3360:	6078      	str	r0, [r7, #4]
    3362:	0150      	lsls	r0, r2, #5
    3364:	460b      	mov	r3, r1
    3366:	461a      	mov	r2, r3
    3368:	f04f 0300 	mov.w	r3, #0
    336c:	ea4f 1b43 	mov.w	fp, r3, lsl #5
    3370:	ea4b 6bd2 	orr.w	fp, fp, r2, lsr #27
    3374:	ea4f 1a42 	mov.w	sl, r2, lsl #5
    3378:	460b      	mov	r3, r1
    337a:	009b      	lsls	r3, r3, #2
    337c:	3303      	adds	r3, #3
    337e:	3307      	adds	r3, #7
    3380:	08db      	lsrs	r3, r3, #3
    3382:	00db      	lsls	r3, r3, #3
    3384:	ebad 0d03 	sub.w	sp, sp, r3
    3388:	466b      	mov	r3, sp
    338a:	3303      	adds	r3, #3
    338c:	089b      	lsrs	r3, r3, #2
    338e:	009b      	lsls	r3, r3, #2
    3390:	623b      	str	r3, [r7, #32]
    3392:	6b79      	ldr	r1, [r7, #52]	; 0x34
    3394:	1e4b      	subs	r3, r1, #1
    3396:	61fb      	str	r3, [r7, #28]
    3398:	460b      	mov	r3, r1
    339a:	461a      	mov	r2, r3
    339c:	f04f 0300 	mov.w	r3, #0
    33a0:	ea4f 19c3 	mov.w	r9, r3, lsl #7
    33a4:	ea49 6952 	orr.w	r9, r9, r2, lsr #25
    33a8:	ea4f 18c2 	mov.w	r8, r2, lsl #7
    33ac:	460b      	mov	r3, r1
    33ae:	461a      	mov	r2, r3
    33b0:	f04f 0300 	mov.w	r3, #0
    33b4:	01dd      	lsls	r5, r3, #7
    33b6:	ea45 6552 	orr.w	r5, r5, r2, lsr #25
    33ba:	01d4      	lsls	r4, r2, #7
    33bc:	460b      	mov	r3, r1
    33be:	011b      	lsls	r3, r3, #4
    33c0:	3303      	adds	r3, #3
    33c2:	3307      	adds	r3, #7
    33c4:	08db      	lsrs	r3, r3, #3
    33c6:	00db      	lsls	r3, r3, #3
    33c8:	ebad 0d03 	sub.w	sp, sp, r3
    33cc:	466b      	mov	r3, sp
    33ce:	3303      	adds	r3, #3
    33d0:	089b      	lsrs	r3, r3, #2
    33d2:	009b      	lsls	r3, r3, #2
    33d4:	61bb      	str	r3, [r7, #24]
    33d6:	6c3b      	ldr	r3, [r7, #64]	; 0x40
    33d8:	2b01      	cmp	r3, #1
    33da:	d110      	bne.n	33fe <vSensor+0xfa>
    33dc:	f243 132c 	movw	r3, #12588	; 0x312c
    33e0:	f2c2 0301 	movt	r3, #8193	; 0x2001
    33e4:	6b3a      	ldr	r2, [r7, #48]	; 0x30
    33e6:	f853 3022 	ldr.w	r3, [r3, r2, lsl #2]
    33ea:	4618      	mov	r0, r3
    33ec:	2100      	movs	r1, #0
    33ee:	f04f 32ff 	mov.w	r2, #4294967295
    33f2:	2300      	movs	r3, #0
    33f4:	f000 fdc8 	bl	3f88 <xQueueGenericReceive>
    33f8:	2300      	movs	r3, #0
    33fa:	643b      	str	r3, [r7, #64]	; 0x40
    33fc:	e00d      	b.n	341a <vSensor+0x116>
    33fe:	6a3b      	ldr	r3, [r7, #32]
    3400:	6bb8      	ldr	r0, [r7, #56]	; 0x38
    3402:	4619      	mov	r1, r3
    3404:	f7ff fe5a 	bl	30bc <vEventReceiveAll>
    3408:	6a3b      	ldr	r3, [r7, #32]
    340a:	4618      	mov	r0, r3
    340c:	f7ff ff6a 	bl	32e4 <vDoActuator>
    3410:	6a3b      	ldr	r3, [r7, #32]
    3412:	6bb8      	ldr	r0, [r7, #56]	; 0x38
    3414:	4619      	mov	r1, r3
    3416:	f7ff fed5 	bl	31c4 <vEventDeleteAll>
    341a:	6b38      	ldr	r0, [r7, #48]	; 0x30
    341c:	f002 fc4e 	bl	5cbc <vPrintNumber>
    3420:	f001 fc66 	bl	4cf0 <xTaskGetTickCount>
    3424:	6178      	str	r0, [r7, #20]
    3426:	6978      	ldr	r0, [r7, #20]
    3428:	f002 fc48 	bl	5cbc <vPrintNumber>
    342c:	f243 134c 	movw	r3, #12620	; 0x314c
    3430:	f2c2 0301 	movt	r3, #8193	; 0x2001
    3434:	6b3a      	ldr	r2, [r7, #48]	; 0x30
    3436:	f853 3022 	ldr.w	r3, [r3, r2, lsl #2]
    343a:	4618      	mov	r0, r3
    343c:	6979      	ldr	r1, [r7, #20]
    343e:	f002 f8f1 	bl	5624 <vTaskSetxStartTime>
    3442:	6bfb      	ldr	r3, [r7, #60]	; 0x3c
    3444:	3301      	adds	r3, #1
    3446:	63fb      	str	r3, [r7, #60]	; 0x3c
    3448:	6bfb      	ldr	r3, [r7, #60]	; 0x3c
    344a:	6aba      	ldr	r2, [r7, #40]	; 0x28
    344c:	fb02 f303 	mul.w	r3, r2, r3
    3450:	613b      	str	r3, [r7, #16]
    3452:	2300      	movs	r3, #0
    3454:	647b      	str	r3, [r7, #68]	; 0x44
    3456:	e011      	b.n	347c <vSensor+0x178>
    3458:	69ba      	ldr	r2, [r7, #24]
    345a:	6c7b      	ldr	r3, [r7, #68]	; 0x44
    345c:	011b      	lsls	r3, r3, #4
    345e:	4413      	add	r3, r2
    3460:	693a      	ldr	r2, [r7, #16]
    3462:	601a      	str	r2, [r3, #0]
    3464:	697a      	ldr	r2, [r7, #20]
    3466:	6afb      	ldr	r3, [r7, #44]	; 0x2c
    3468:	441a      	add	r2, r3
    346a:	69b9      	ldr	r1, [r7, #24]
    346c:	6c7b      	ldr	r3, [r7, #68]	; 0x44
    346e:	011b      	lsls	r3, r3, #4
    3470:	440b      	add	r3, r1
    3472:	3304      	adds	r3, #4
    3474:	601a      	str	r2, [r3, #0]
    3476:	6c7b      	ldr	r3, [r7, #68]	; 0x44
    3478:	3301      	adds	r3, #1
    347a:	647b      	str	r3, [r7, #68]	; 0x44
    347c:	6c7a      	ldr	r2, [r7, #68]	; 0x44
    347e:	6b7b      	ldr	r3, [r7, #52]	; 0x34
    3480:	429a      	cmp	r2, r3
    3482:	dbe9      	blt.n	3458 <vSensor+0x154>
    3484:	69bb      	ldr	r3, [r7, #24]
    3486:	6bb8      	ldr	r0, [r7, #56]	; 0x38
    3488:	4619      	mov	r1, r3
    348a:	f7ff feb9 	bl	3200 <vEventCreateAll>
    348e:	2300      	movs	r3, #0
    3490:	647b      	str	r3, [r7, #68]	; 0x44
    3492:	e002      	b.n	349a <vSensor+0x196>
    3494:	6c7b      	ldr	r3, [r7, #68]	; 0x44
    3496:	3301      	adds	r3, #1
    3498:	647b      	str	r3, [r7, #68]	; 0x44
    349a:	6c7b      	ldr	r3, [r7, #68]	; 0x44
    349c:	f5b3 7ffa 	cmp.w	r3, #500	; 0x1f4
    34a0:	dbf8      	blt.n	3494 <vSensor+0x190>
    34a2:	f7ff fdeb 	bl	307c <vTaskDelayLET>
    34a6:	f001 fc23 	bl	4cf0 <xTaskGetTickCount>
    34aa:	6178      	str	r0, [r7, #20]
    34ac:	6978      	ldr	r0, [r7, #20]
    34ae:	f002 fc05 	bl	5cbc <vPrintNumber>
    34b2:	6b3b      	ldr	r3, [r7, #48]	; 0x30
    34b4:	f103 020a 	add.w	r2, r3, #10
    34b8:	4613      	mov	r3, r2
    34ba:	005b      	lsls	r3, r3, #1
    34bc:	4413      	add	r3, r2
    34be:	4618      	mov	r0, r3
    34c0:	f002 fbfc 	bl	5cbc <vPrintNumber>
    34c4:	69bb      	ldr	r3, [r7, #24]
    34c6:	681a      	ldr	r2, [r3, #0]
    34c8:	697b      	ldr	r3, [r7, #20]
    34ca:	429a      	cmp	r2, r3
    34cc:	d20a      	bcs.n	34e4 <vSensor+0x1e0>
    34ce:	69bb      	ldr	r3, [r7, #24]
    34d0:	681b      	ldr	r3, [r3, #0]
    34d2:	4618      	mov	r0, r3
    34d4:	f002 fbf2 	bl	5cbc <vPrintNumber>
    34d8:	f246 10c8 	movw	r0, #25032	; 0x61c8
    34dc:	f2c0 0000 	movt	r0, #0
    34e0:	f002 fbd2 	bl	5c88 <vPrintString>
    34e4:	f243 132c 	movw	r3, #12588	; 0x312c
    34e8:	f2c2 0301 	movt	r3, #8193	; 0x2001
    34ec:	68db      	ldr	r3, [r3, #12]
    34ee:	4618      	mov	r0, r3
    34f0:	2100      	movs	r1, #0
    34f2:	2200      	movs	r2, #0
    34f4:	2300      	movs	r3, #0
    34f6:	f000 fc81 	bl	3dfc <xQueueGenericSend>
    34fa:	e76c      	b.n	33d6 <vSensor+0xd2>

000034fc <vServant>:
    34fc:	e92d 4ff0 	stmdb	sp!, {r4, r5, r6, r7, r8, r9, sl, fp, lr}
    3500:	b093      	sub	sp, #76	; 0x4c
    3502:	af00      	add	r7, sp, #0
    3504:	6178      	str	r0, [r7, #20]
    3506:	6979      	ldr	r1, [r7, #20]
    3508:	6439      	str	r1, [r7, #64]	; 0x40
    350a:	6c39      	ldr	r1, [r7, #64]	; 0x40
    350c:	6849      	ldr	r1, [r1, #4]
    350e:	63f9      	str	r1, [r7, #60]	; 0x3c
    3510:	6c39      	ldr	r1, [r7, #64]	; 0x40
    3512:	6889      	ldr	r1, [r1, #8]
    3514:	63b9      	str	r1, [r7, #56]	; 0x38
    3516:	6c39      	ldr	r1, [r7, #64]	; 0x40
    3518:	6809      	ldr	r1, [r1, #0]
    351a:	6379      	str	r1, [r7, #52]	; 0x34
    351c:	6c39      	ldr	r1, [r7, #64]	; 0x40
    351e:	6e49      	ldr	r1, [r1, #100]	; 0x64
    3520:	6339      	str	r1, [r7, #48]	; 0x30
    3522:	6bfe      	ldr	r6, [r7, #60]	; 0x3c
    3524:	1e71      	subs	r1, r6, #1
    3526:	62f9      	str	r1, [r7, #44]	; 0x2c
    3528:	4631      	mov	r1, r6
    352a:	4608      	mov	r0, r1
    352c:	f04f 0100 	mov.w	r1, #0
    3530:	ea4f 1b41 	mov.w	fp, r1, lsl #5
    3534:	ea4b 6bd0 	orr.w	fp, fp, r0, lsr #27
    3538:	ea4f 1a40 	mov.w	sl, r0, lsl #5
    353c:	4631      	mov	r1, r6
    353e:	4608      	mov	r0, r1
    3540:	f04f 0100 	mov.w	r1, #0
    3544:	ea4f 1941 	mov.w	r9, r1, lsl #5
    3548:	ea49 69d0 	orr.w	r9, r9, r0, lsr #27
    354c:	ea4f 1840 	mov.w	r8, r0, lsl #5
    3550:	4631      	mov	r1, r6
    3552:	0089      	lsls	r1, r1, #2
    3554:	3103      	adds	r1, #3
    3556:	3107      	adds	r1, #7
    3558:	08c9      	lsrs	r1, r1, #3
    355a:	00c9      	lsls	r1, r1, #3
    355c:	ebad 0d01 	sub.w	sp, sp, r1
    3560:	4669      	mov	r1, sp
    3562:	3103      	adds	r1, #3
    3564:	0889      	lsrs	r1, r1, #2
    3566:	0089      	lsls	r1, r1, #2
    3568:	62b9      	str	r1, [r7, #40]	; 0x28
    356a:	6bbe      	ldr	r6, [r7, #56]	; 0x38
    356c:	1e71      	subs	r1, r6, #1
    356e:	6279      	str	r1, [r7, #36]	; 0x24
    3570:	4631      	mov	r1, r6
    3572:	4608      	mov	r0, r1
    3574:	f04f 0100 	mov.w	r1, #0
    3578:	01cd      	lsls	r5, r1, #7
    357a:	ea45 6550 	orr.w	r5, r5, r0, lsr #25
    357e:	01c4      	lsls	r4, r0, #7
    3580:	4631      	mov	r1, r6
    3582:	4608      	mov	r0, r1
    3584:	f04f 0100 	mov.w	r1, #0
    3588:	01cb      	lsls	r3, r1, #7
    358a:	ea43 6350 	orr.w	r3, r3, r0, lsr #25
    358e:	01c2      	lsls	r2, r0, #7
    3590:	4633      	mov	r3, r6
    3592:	011b      	lsls	r3, r3, #4
    3594:	3303      	adds	r3, #3
    3596:	3307      	adds	r3, #7
    3598:	08db      	lsrs	r3, r3, #3
    359a:	00db      	lsls	r3, r3, #3
    359c:	ebad 0d03 	sub.w	sp, sp, r3
    35a0:	466b      	mov	r3, sp
    35a2:	3303      	adds	r3, #3
    35a4:	089b      	lsrs	r3, r3, #2
    35a6:	009b      	lsls	r3, r3, #2
    35a8:	623b      	str	r3, [r7, #32]
    35aa:	6c3b      	ldr	r3, [r7, #64]	; 0x40
    35ac:	6ddb      	ldr	r3, [r3, #92]	; 0x5c
    35ae:	61fb      	str	r3, [r7, #28]
    35b0:	f243 134c 	movw	r3, #12620	; 0x314c
    35b4:	f2c2 0301 	movt	r3, #8193	; 0x2001
    35b8:	6b7a      	ldr	r2, [r7, #52]	; 0x34
    35ba:	f853 3022 	ldr.w	r3, [r3, r2, lsl #2]
    35be:	4618      	mov	r0, r3
    35c0:	69f9      	ldr	r1, [r7, #28]
    35c2:	f002 f83d 	bl	5640 <vTaskSetxLet>
    35c6:	6abb      	ldr	r3, [r7, #40]	; 0x28
    35c8:	6c38      	ldr	r0, [r7, #64]	; 0x40
    35ca:	4619      	mov	r1, r3
    35cc:	f7ff fd76 	bl	30bc <vEventReceiveAll>
    35d0:	6b78      	ldr	r0, [r7, #52]	; 0x34
    35d2:	f002 fb73 	bl	5cbc <vPrintNumber>
    35d6:	f001 fb8b 	bl	4cf0 <xTaskGetTickCount>
    35da:	61b8      	str	r0, [r7, #24]
    35dc:	69b8      	ldr	r0, [r7, #24]
    35de:	f002 fb6d 	bl	5cbc <vPrintNumber>
    35e2:	f243 134c 	movw	r3, #12620	; 0x314c
    35e6:	f2c2 0301 	movt	r3, #8193	; 0x2001
    35ea:	6b7a      	ldr	r2, [r7, #52]	; 0x34
    35ec:	f853 3022 	ldr.w	r3, [r3, r2, lsl #2]
    35f0:	4618      	mov	r0, r3
    35f2:	69b9      	ldr	r1, [r7, #24]
    35f4:	f002 f816 	bl	5624 <vTaskSetxStartTime>
    35f8:	2300      	movs	r3, #0
    35fa:	647b      	str	r3, [r7, #68]	; 0x44
    35fc:	e01c      	b.n	3638 <vServant+0x13c>
    35fe:	6abb      	ldr	r3, [r7, #40]	; 0x28
    3600:	6c7a      	ldr	r2, [r7, #68]	; 0x44
    3602:	f853 3022 	ldr.w	r3, [r3, r2, lsl #2]
    3606:	6a39      	ldr	r1, [r7, #32]
    3608:	6c7a      	ldr	r2, [r7, #68]	; 0x44
    360a:	0112      	lsls	r2, r2, #4
    360c:	188c      	adds	r4, r1, r2
    360e:	463a      	mov	r2, r7
    3610:	4610      	mov	r0, r2
    3612:	4619      	mov	r1, r3
    3614:	f7ff f9ea 	bl	29ec <xEventGetxData>
    3618:	463b      	mov	r3, r7
    361a:	cb0f      	ldmia	r3, {r0, r1, r2, r3}
    361c:	e884 000f 	stmia.w	r4, {r0, r1, r2, r3}
    3620:	69ba      	ldr	r2, [r7, #24]
    3622:	69fb      	ldr	r3, [r7, #28]
    3624:	441a      	add	r2, r3
    3626:	6a39      	ldr	r1, [r7, #32]
    3628:	6c7b      	ldr	r3, [r7, #68]	; 0x44
    362a:	011b      	lsls	r3, r3, #4
    362c:	440b      	add	r3, r1
    362e:	3304      	adds	r3, #4
    3630:	601a      	str	r2, [r3, #0]
    3632:	6c7b      	ldr	r3, [r7, #68]	; 0x44
    3634:	3301      	adds	r3, #1
    3636:	647b      	str	r3, [r7, #68]	; 0x44
    3638:	6c7a      	ldr	r2, [r7, #68]	; 0x44
    363a:	6bbb      	ldr	r3, [r7, #56]	; 0x38
    363c:	429a      	cmp	r2, r3
    363e:	dbde      	blt.n	35fe <vServant+0x102>
    3640:	2300      	movs	r3, #0
    3642:	647b      	str	r3, [r7, #68]	; 0x44
    3644:	e002      	b.n	364c <vServant+0x150>
    3646:	6c7b      	ldr	r3, [r7, #68]	; 0x44
    3648:	3301      	adds	r3, #1
    364a:	647b      	str	r3, [r7, #68]	; 0x44
    364c:	6c7b      	ldr	r3, [r7, #68]	; 0x44
    364e:	f5b3 7ffa 	cmp.w	r3, #500	; 0x1f4
    3652:	dbf8      	blt.n	3646 <vServant+0x14a>
    3654:	6abb      	ldr	r3, [r7, #40]	; 0x28
    3656:	6c38      	ldr	r0, [r7, #64]	; 0x40
    3658:	4619      	mov	r1, r3
    365a:	f7ff fdb3 	bl	31c4 <vEventDeleteAll>
    365e:	6a3b      	ldr	r3, [r7, #32]
    3660:	6c38      	ldr	r0, [r7, #64]	; 0x40
    3662:	4619      	mov	r1, r3
    3664:	f7ff fdcc 	bl	3200 <vEventCreateAll>
    3668:	6a3b      	ldr	r3, [r7, #32]
    366a:	681a      	ldr	r2, [r3, #0]
    366c:	69bb      	ldr	r3, [r7, #24]
    366e:	429a      	cmp	r2, r3
    3670:	d210      	bcs.n	3694 <vServant+0x198>
    3672:	6a3b      	ldr	r3, [r7, #32]
    3674:	681b      	ldr	r3, [r3, #0]
    3676:	4618      	mov	r0, r3
    3678:	f002 fb20 	bl	5cbc <vPrintNumber>
    367c:	69b8      	ldr	r0, [r7, #24]
    367e:	f002 fb1d 	bl	5cbc <vPrintNumber>
    3682:	6b78      	ldr	r0, [r7, #52]	; 0x34
    3684:	f002 fb1a 	bl	5cbc <vPrintNumber>
    3688:	f246 10ec 	movw	r0, #25068	; 0x61ec
    368c:	f2c0 0000 	movt	r0, #0
    3690:	f002 fafa 	bl	5c88 <vPrintString>
    3694:	f7ff fcf2 	bl	307c <vTaskDelayLET>
    3698:	f001 fb2a 	bl	4cf0 <xTaskGetTickCount>
    369c:	61b8      	str	r0, [r7, #24]
    369e:	69b8      	ldr	r0, [r7, #24]
    36a0:	f002 fb0c 	bl	5cbc <vPrintNumber>
    36a4:	6b7b      	ldr	r3, [r7, #52]	; 0x34
    36a6:	f103 020a 	add.w	r2, r3, #10
    36aa:	4613      	mov	r3, r2
    36ac:	005b      	lsls	r3, r3, #1
    36ae:	4413      	add	r3, r2
    36b0:	4618      	mov	r0, r3
    36b2:	f002 fb03 	bl	5cbc <vPrintNumber>
    36b6:	f243 132c 	movw	r3, #12588	; 0x312c
    36ba:	f2c2 0301 	movt	r3, #8193	; 0x2001
    36be:	68db      	ldr	r3, [r3, #12]
    36c0:	4618      	mov	r0, r3
    36c2:	2100      	movs	r1, #0
    36c4:	2200      	movs	r2, #0
    36c6:	2300      	movs	r3, #0
    36c8:	f000 fb98 	bl	3dfc <xQueueGenericSend>
    36cc:	e77b      	b.n	35c6 <vServant+0xca>
    36ce:	bf00      	nop

000036d0 <vR_Servant>:
    36d0:	b580      	push	{r7, lr}
    36d2:	b090      	sub	sp, #64	; 0x40
    36d4:	af00      	add	r7, sp, #0
    36d6:	6078      	str	r0, [r7, #4]
    36d8:	687b      	ldr	r3, [r7, #4]
    36da:	62bb      	str	r3, [r7, #40]	; 0x28
    36dc:	6abb      	ldr	r3, [r7, #40]	; 0x28
    36de:	681b      	ldr	r3, [r3, #0]
    36e0:	627b      	str	r3, [r7, #36]	; 0x24
    36e2:	6abb      	ldr	r3, [r7, #40]	; 0x28
    36e4:	6ddb      	ldr	r3, [r3, #92]	; 0x5c
    36e6:	623b      	str	r3, [r7, #32]
    36e8:	f243 134c 	movw	r3, #12620	; 0x314c
    36ec:	f2c2 0301 	movt	r3, #8193	; 0x2001
    36f0:	6a7a      	ldr	r2, [r7, #36]	; 0x24
    36f2:	f853 3022 	ldr.w	r3, [r3, r2, lsl #2]
    36f6:	4618      	mov	r0, r3
    36f8:	6a39      	ldr	r1, [r7, #32]
    36fa:	f001 ffa1 	bl	5640 <vTaskSetxLet>
    36fe:	f243 132c 	movw	r3, #12588	; 0x312c
    3702:	f2c2 0301 	movt	r3, #8193	; 0x2001
    3706:	6a7a      	ldr	r2, [r7, #36]	; 0x24
    3708:	f853 3022 	ldr.w	r3, [r3, r2, lsl #2]
    370c:	4618      	mov	r0, r3
    370e:	2100      	movs	r1, #0
    3710:	f04f 32ff 	mov.w	r2, #4294967295
    3714:	2300      	movs	r3, #0
    3716:	f000 fc37 	bl	3f88 <xQueueGenericReceive>
    371a:	f001 fae9 	bl	4cf0 <xTaskGetTickCount>
    371e:	61f8      	str	r0, [r7, #28]
    3720:	f243 134c 	movw	r3, #12620	; 0x314c
    3724:	f2c2 0301 	movt	r3, #8193	; 0x2001
    3728:	6a7a      	ldr	r2, [r7, #36]	; 0x24
    372a:	f853 3022 	ldr.w	r3, [r3, r2, lsl #2]
    372e:	4618      	mov	r0, r3
    3730:	69f9      	ldr	r1, [r7, #28]
    3732:	f001 ff77 	bl	5624 <vTaskSetxStartTime>
    3736:	2300      	movs	r3, #0
    3738:	637b      	str	r3, [r7, #52]	; 0x34
    373a:	e094      	b.n	3866 <vR_Servant+0x196>
    373c:	f107 030c 	add.w	r3, r7, #12
    3740:	4618      	mov	r0, r3
    3742:	f243 01e0 	movw	r1, #12512	; 0x30e0
    3746:	f2c2 0101 	movt	r1, #8193	; 0x2001
    374a:	f7ff fa99 	bl	2c80 <xEventListGenericTransit>
    374e:	6338      	str	r0, [r7, #48]	; 0x30
    3750:	6b3b      	ldr	r3, [r7, #48]	; 0x30
    3752:	f1b3 3fff 	cmp.w	r3, #4294967295
    3756:	d100      	bne.n	375a <vR_Servant+0x8a>
    3758:	e089      	b.n	386e <vR_Servant+0x19e>
    375a:	6b3b      	ldr	r3, [r7, #48]	; 0x30
    375c:	2b00      	cmp	r3, #0
    375e:	d100      	bne.n	3762 <vR_Servant+0x92>
    3760:	e085      	b.n	386e <vR_Servant+0x19e>
    3762:	68fb      	ldr	r3, [r7, #12]
    3764:	68db      	ldr	r3, [r3, #12]
    3766:	4618      	mov	r0, r3
    3768:	f7ff f922 	bl	29b0 <xEventGetpxDestination>
    376c:	62f8      	str	r0, [r7, #44]	; 0x2c
    376e:	68fb      	ldr	r3, [r7, #12]
    3770:	68db      	ldr	r3, [r3, #12]
    3772:	4618      	mov	r0, r3
    3774:	f7ff f910 	bl	2998 <xEventGetpxSource>
    3778:	61b8      	str	r0, [r7, #24]
    377a:	2301      	movs	r3, #1
    377c:	637b      	str	r3, [r7, #52]	; 0x34
    377e:	2300      	movs	r3, #0
    3780:	63fb      	str	r3, [r7, #60]	; 0x3c
    3782:	e068      	b.n	3856 <vR_Servant+0x186>
    3784:	f243 02f8 	movw	r2, #12536	; 0x30f8
    3788:	f2c2 0201 	movt	r2, #8193	; 0x2001
    378c:	6bf9      	ldr	r1, [r7, #60]	; 0x3c
    378e:	460b      	mov	r3, r1
    3790:	005b      	lsls	r3, r3, #1
    3792:	440b      	add	r3, r1
    3794:	009b      	lsls	r3, r3, #2
    3796:	4413      	add	r3, r2
    3798:	3304      	adds	r3, #4
    379a:	681b      	ldr	r3, [r3, #0]
    379c:	617b      	str	r3, [r7, #20]
    379e:	f243 02f8 	movw	r2, #12536	; 0x30f8
    37a2:	f2c2 0201 	movt	r2, #8193	; 0x2001
    37a6:	6bf9      	ldr	r1, [r7, #60]	; 0x3c
    37a8:	460b      	mov	r3, r1
    37aa:	005b      	lsls	r3, r3, #1
    37ac:	440b      	add	r3, r1
    37ae:	009b      	lsls	r3, r3, #2
    37b0:	4413      	add	r3, r2
    37b2:	3308      	adds	r3, #8
    37b4:	681b      	ldr	r3, [r3, #0]
    37b6:	613b      	str	r3, [r7, #16]
    37b8:	f243 134c 	movw	r3, #12620	; 0x314c
    37bc:	f2c2 0301 	movt	r3, #8193	; 0x2001
    37c0:	693a      	ldr	r2, [r7, #16]
    37c2:	f853 2022 	ldr.w	r2, [r3, r2, lsl #2]
    37c6:	6afb      	ldr	r3, [r7, #44]	; 0x2c
    37c8:	429a      	cmp	r2, r3
    37ca:	d141      	bne.n	3850 <vR_Servant+0x180>
    37cc:	f243 134c 	movw	r3, #12620	; 0x314c
    37d0:	f2c2 0301 	movt	r3, #8193	; 0x2001
    37d4:	697a      	ldr	r2, [r7, #20]
    37d6:	f853 2022 	ldr.w	r2, [r3, r2, lsl #2]
    37da:	69bb      	ldr	r3, [r7, #24]
    37dc:	429a      	cmp	r2, r3
    37de:	d127      	bne.n	3830 <vR_Servant+0x160>
    37e0:	f243 02f8 	movw	r2, #12536	; 0x30f8
    37e4:	f2c2 0201 	movt	r2, #8193	; 0x2001
    37e8:	6bf9      	ldr	r1, [r7, #60]	; 0x3c
    37ea:	460b      	mov	r3, r1
    37ec:	005b      	lsls	r3, r3, #1
    37ee:	440b      	add	r3, r1
    37f0:	009b      	lsls	r3, r3, #2
    37f2:	4413      	add	r3, r2
    37f4:	330c      	adds	r3, #12
    37f6:	681b      	ldr	r3, [r3, #0]
    37f8:	2b02      	cmp	r3, #2
    37fa:	d10b      	bne.n	3814 <vR_Servant+0x144>
    37fc:	f246 2014 	movw	r0, #25108	; 0x6214
    3800:	f2c0 0000 	movt	r0, #0
    3804:	f002 fa40 	bl	5c88 <vPrintString>
    3808:	68fb      	ldr	r3, [r7, #12]
    380a:	68db      	ldr	r3, [r3, #12]
    380c:	4618      	mov	r0, r3
    380e:	f7ff fae9 	bl	2de4 <vEventGenericDelete>
    3812:	e01d      	b.n	3850 <vR_Servant+0x180>
    3814:	f243 02f8 	movw	r2, #12536	; 0x30f8
    3818:	f2c2 0201 	movt	r2, #8193	; 0x2001
    381c:	6bf9      	ldr	r1, [r7, #60]	; 0x3c
    381e:	460b      	mov	r3, r1
    3820:	005b      	lsls	r3, r3, #1
    3822:	440b      	add	r3, r1
    3824:	009b      	lsls	r3, r3, #2
    3826:	4413      	add	r3, r2
    3828:	330c      	adds	r3, #12
    382a:	2202      	movs	r2, #2
    382c:	601a      	str	r2, [r3, #0]
    382e:	e00f      	b.n	3850 <vR_Servant+0x180>
    3830:	f243 02f8 	movw	r2, #12536	; 0x30f8
    3834:	f2c2 0201 	movt	r2, #8193	; 0x2001
    3838:	6bf9      	ldr	r1, [r7, #60]	; 0x3c
    383a:	460b      	mov	r3, r1
    383c:	005b      	lsls	r3, r3, #1
    383e:	440b      	add	r3, r1
    3840:	009b      	lsls	r3, r3, #2
    3842:	4413      	add	r3, r2
    3844:	330c      	adds	r3, #12
    3846:	681b      	ldr	r3, [r3, #0]
    3848:	2b01      	cmp	r3, #1
    384a:	d101      	bne.n	3850 <vR_Servant+0x180>
    384c:	2300      	movs	r3, #0
    384e:	637b      	str	r3, [r7, #52]	; 0x34
    3850:	6bfb      	ldr	r3, [r7, #60]	; 0x3c
    3852:	3301      	adds	r3, #1
    3854:	63fb      	str	r3, [r7, #60]	; 0x3c
    3856:	f243 03f8 	movw	r3, #12536	; 0x30f8
    385a:	f2c2 0301 	movt	r3, #8193	; 0x2001
    385e:	681a      	ldr	r2, [r3, #0]
    3860:	6bfb      	ldr	r3, [r7, #60]	; 0x3c
    3862:	429a      	cmp	r2, r3
    3864:	dc8e      	bgt.n	3784 <vR_Servant+0xb4>
    3866:	6b7b      	ldr	r3, [r7, #52]	; 0x34
    3868:	2b00      	cmp	r3, #0
    386a:	f43f af67 	beq.w	373c <vR_Servant+0x6c>
    386e:	6b3b      	ldr	r3, [r7, #48]	; 0x30
    3870:	f1b3 3fff 	cmp.w	r3, #4294967295
    3874:	d100      	bne.n	3878 <vR_Servant+0x1a8>
    3876:	e045      	b.n	3904 <vR_Servant+0x234>
    3878:	6b3b      	ldr	r3, [r7, #48]	; 0x30
    387a:	2b00      	cmp	r3, #0
    387c:	d100      	bne.n	3880 <vR_Servant+0x1b0>
    387e:	e041      	b.n	3904 <vR_Servant+0x234>
    3880:	2300      	movs	r3, #0
    3882:	63fb      	str	r3, [r7, #60]	; 0x3c
    3884:	e028      	b.n	38d8 <vR_Servant+0x208>
    3886:	f243 02f8 	movw	r2, #12536	; 0x30f8
    388a:	f2c2 0201 	movt	r2, #8193	; 0x2001
    388e:	6bf9      	ldr	r1, [r7, #60]	; 0x3c
    3890:	460b      	mov	r3, r1
    3892:	005b      	lsls	r3, r3, #1
    3894:	440b      	add	r3, r1
    3896:	009b      	lsls	r3, r3, #2
    3898:	4413      	add	r3, r2
    389a:	3308      	adds	r3, #8
    389c:	681b      	ldr	r3, [r3, #0]
    389e:	613b      	str	r3, [r7, #16]
    38a0:	f243 134c 	movw	r3, #12620	; 0x314c
    38a4:	f2c2 0301 	movt	r3, #8193	; 0x2001
    38a8:	693a      	ldr	r2, [r7, #16]
    38aa:	f853 2022 	ldr.w	r2, [r3, r2, lsl #2]
    38ae:	6afb      	ldr	r3, [r7, #44]	; 0x2c
    38b0:	429a      	cmp	r2, r3
    38b2:	d10e      	bne.n	38d2 <vR_Servant+0x202>
    38b4:	f243 02f8 	movw	r2, #12536	; 0x30f8
    38b8:	f2c2 0201 	movt	r2, #8193	; 0x2001
    38bc:	6bf9      	ldr	r1, [r7, #60]	; 0x3c
    38be:	460b      	mov	r3, r1
    38c0:	005b      	lsls	r3, r3, #1
    38c2:	440b      	add	r3, r1
    38c4:	009b      	lsls	r3, r3, #2
    38c6:	4413      	add	r3, r2
    38c8:	330c      	adds	r3, #12
    38ca:	2201      	movs	r2, #1
    38cc:	601a      	str	r2, [r3, #0]
    38ce:	693b      	ldr	r3, [r7, #16]
    38d0:	63bb      	str	r3, [r7, #56]	; 0x38
    38d2:	6bfb      	ldr	r3, [r7, #60]	; 0x3c
    38d4:	3301      	adds	r3, #1
    38d6:	63fb      	str	r3, [r7, #60]	; 0x3c
    38d8:	f243 03f8 	movw	r3, #12536	; 0x30f8
    38dc:	f2c2 0301 	movt	r3, #8193	; 0x2001
    38e0:	681a      	ldr	r2, [r3, #0]
    38e2:	6bfb      	ldr	r3, [r7, #60]	; 0x3c
    38e4:	429a      	cmp	r2, r3
    38e6:	dcce      	bgt.n	3886 <vR_Servant+0x1b6>
    38e8:	f243 132c 	movw	r3, #12588	; 0x312c
    38ec:	f2c2 0301 	movt	r3, #8193	; 0x2001
    38f0:	6bba      	ldr	r2, [r7, #56]	; 0x38
    38f2:	f853 3022 	ldr.w	r3, [r3, r2, lsl #2]
    38f6:	4618      	mov	r0, r3
    38f8:	2100      	movs	r1, #0
    38fa:	2200      	movs	r2, #0
    38fc:	2300      	movs	r3, #0
    38fe:	f000 fa7d 	bl	3dfc <xQueueGenericSend>
    3902:	e6fc      	b.n	36fe <vR_Servant+0x2e>
    3904:	e6fb      	b.n	36fe <vR_Servant+0x2e>
    3906:	bf00      	nop

00003908 <vAppInitialise>:
    3908:	b480      	push	{r7}
    390a:	b083      	sub	sp, #12
    390c:	af00      	add	r7, sp, #0
    390e:	2300      	movs	r3, #0
    3910:	607b      	str	r3, [r7, #4]
    3912:	e00a      	b.n	392a <vAppInitialise+0x22>
    3914:	f243 03f4 	movw	r3, #12532	; 0x30f4
    3918:	f2c2 0301 	movt	r3, #8193	; 0x2001
    391c:	687a      	ldr	r2, [r7, #4]
    391e:	2128      	movs	r1, #40	; 0x28
    3920:	f843 1022 	str.w	r1, [r3, r2, lsl #2]
    3924:	687b      	ldr	r3, [r7, #4]
    3926:	3301      	adds	r3, #1
    3928:	607b      	str	r3, [r7, #4]
    392a:	687b      	ldr	r3, [r7, #4]
    392c:	2b00      	cmp	r3, #0
    392e:	ddf1      	ble.n	3914 <vAppInitialise+0xc>
    3930:	2300      	movs	r3, #0
    3932:	607b      	str	r3, [r7, #4]
    3934:	e00a      	b.n	394c <vAppInitialise+0x44>
    3936:	f243 133c 	movw	r3, #12604	; 0x313c
    393a:	f2c2 0301 	movt	r3, #8193	; 0x2001
    393e:	687a      	ldr	r2, [r7, #4]
    3940:	210a      	movs	r1, #10
    3942:	f843 1022 	str.w	r1, [r3, r2, lsl #2]
    3946:	687b      	ldr	r3, [r7, #4]
    3948:	3301      	adds	r3, #1
    394a:	607b      	str	r3, [r7, #4]
    394c:	687b      	ldr	r3, [r7, #4]
    394e:	2b03      	cmp	r3, #3
    3950:	ddf1      	ble.n	3936 <vAppInitialise+0x2e>
    3952:	2300      	movs	r3, #0
    3954:	607b      	str	r3, [r7, #4]
    3956:	e018      	b.n	398a <vAppInitialise+0x82>
    3958:	2300      	movs	r3, #0
    395a:	603b      	str	r3, [r7, #0]
    395c:	e00f      	b.n	397e <vAppInitialise+0x76>
    395e:	687a      	ldr	r2, [r7, #4]
    3960:	4613      	mov	r3, r2
    3962:	005b      	lsls	r3, r3, #1
    3964:	441a      	add	r2, r3
    3966:	683b      	ldr	r3, [r7, #0]
    3968:	441a      	add	r2, r3
    396a:	f243 03e4 	movw	r3, #12516	; 0x30e4
    396e:	f2c2 0301 	movt	r3, #8193	; 0x2001
    3972:	6879      	ldr	r1, [r7, #4]
    3974:	f843 1022 	str.w	r1, [r3, r2, lsl #2]
    3978:	683b      	ldr	r3, [r7, #0]
    397a:	3301      	adds	r3, #1
    397c:	603b      	str	r3, [r7, #0]
    397e:	683b      	ldr	r3, [r7, #0]
    3980:	2b02      	cmp	r3, #2
    3982:	ddec      	ble.n	395e <vAppInitialise+0x56>
    3984:	687b      	ldr	r3, [r7, #4]
    3986:	3301      	adds	r3, #1
    3988:	607b      	str	r3, [r7, #4]
    398a:	687b      	ldr	r3, [r7, #4]
    398c:	2b00      	cmp	r3, #0
    398e:	dde3      	ble.n	3958 <vAppInitialise+0x50>
    3990:	f243 03f8 	movw	r3, #12536	; 0x30f8
    3994:	f2c2 0301 	movt	r3, #8193	; 0x2001
    3998:	2204      	movs	r2, #4
    399a:	601a      	str	r2, [r3, #0]
    399c:	2300      	movs	r3, #0
    399e:	607b      	str	r3, [r7, #4]
    39a0:	e046      	b.n	3a30 <vAppInitialise+0x128>
    39a2:	2301      	movs	r3, #1
    39a4:	603b      	str	r3, [r7, #0]
    39a6:	e03d      	b.n	3a24 <vAppInitialise+0x11c>
    39a8:	687b      	ldr	r3, [r7, #4]
    39aa:	005a      	lsls	r2, r3, #1
    39ac:	683b      	ldr	r3, [r7, #0]
    39ae:	4413      	add	r3, r2
    39b0:	1e59      	subs	r1, r3, #1
    39b2:	687a      	ldr	r2, [r7, #4]
    39b4:	4613      	mov	r3, r2
    39b6:	005b      	lsls	r3, r3, #1
    39b8:	1898      	adds	r0, r3, r2
    39ba:	f243 02f8 	movw	r2, #12536	; 0x30f8
    39be:	f2c2 0201 	movt	r2, #8193	; 0x2001
    39c2:	460b      	mov	r3, r1
    39c4:	005b      	lsls	r3, r3, #1
    39c6:	440b      	add	r3, r1
    39c8:	009b      	lsls	r3, r3, #2
    39ca:	4413      	add	r3, r2
    39cc:	3304      	adds	r3, #4
    39ce:	6018      	str	r0, [r3, #0]
    39d0:	687b      	ldr	r3, [r7, #4]
    39d2:	005a      	lsls	r2, r3, #1
    39d4:	683b      	ldr	r3, [r7, #0]
    39d6:	4413      	add	r3, r2
    39d8:	1e59      	subs	r1, r3, #1
    39da:	687a      	ldr	r2, [r7, #4]
    39dc:	4613      	mov	r3, r2
    39de:	005b      	lsls	r3, r3, #1
    39e0:	441a      	add	r2, r3
    39e2:	683b      	ldr	r3, [r7, #0]
    39e4:	18d0      	adds	r0, r2, r3
    39e6:	f243 02f8 	movw	r2, #12536	; 0x30f8
    39ea:	f2c2 0201 	movt	r2, #8193	; 0x2001
    39ee:	460b      	mov	r3, r1
    39f0:	005b      	lsls	r3, r3, #1
    39f2:	440b      	add	r3, r1
    39f4:	009b      	lsls	r3, r3, #2
    39f6:	4413      	add	r3, r2
    39f8:	3308      	adds	r3, #8
    39fa:	6018      	str	r0, [r3, #0]
    39fc:	687b      	ldr	r3, [r7, #4]
    39fe:	005a      	lsls	r2, r3, #1
    3a00:	683b      	ldr	r3, [r7, #0]
    3a02:	4413      	add	r3, r2
    3a04:	1e59      	subs	r1, r3, #1
    3a06:	f243 02f8 	movw	r2, #12536	; 0x30f8
    3a0a:	f2c2 0201 	movt	r2, #8193	; 0x2001
    3a0e:	460b      	mov	r3, r1
    3a10:	005b      	lsls	r3, r3, #1
    3a12:	440b      	add	r3, r1
    3a14:	009b      	lsls	r3, r3, #2
    3a16:	4413      	add	r3, r2
    3a18:	330c      	adds	r3, #12
    3a1a:	2201      	movs	r2, #1
    3a1c:	601a      	str	r2, [r3, #0]
    3a1e:	683b      	ldr	r3, [r7, #0]
    3a20:	3301      	adds	r3, #1
    3a22:	603b      	str	r3, [r7, #0]
    3a24:	683b      	ldr	r3, [r7, #0]
    3a26:	2b02      	cmp	r3, #2
    3a28:	ddbe      	ble.n	39a8 <vAppInitialise+0xa0>
    3a2a:	687b      	ldr	r3, [r7, #4]
    3a2c:	3301      	adds	r3, #1
    3a2e:	607b      	str	r3, [r7, #4]
    3a30:	687b      	ldr	r3, [r7, #4]
    3a32:	2b00      	cmp	r3, #0
    3a34:	ddb5      	ble.n	39a2 <vAppInitialise+0x9a>
    3a36:	2300      	movs	r3, #0
    3a38:	607b      	str	r3, [r7, #4]
    3a3a:	e046      	b.n	3aca <vAppInitialise+0x1c2>
    3a3c:	2301      	movs	r3, #1
    3a3e:	603b      	str	r3, [r7, #0]
    3a40:	e03d      	b.n	3abe <vAppInitialise+0x1b6>
    3a42:	687b      	ldr	r3, [r7, #4]
    3a44:	005a      	lsls	r2, r3, #1
    3a46:	683b      	ldr	r3, [r7, #0]
    3a48:	4413      	add	r3, r2
    3a4a:	1c59      	adds	r1, r3, #1
    3a4c:	687a      	ldr	r2, [r7, #4]
    3a4e:	4613      	mov	r3, r2
    3a50:	005b      	lsls	r3, r3, #1
    3a52:	441a      	add	r2, r3
    3a54:	683b      	ldr	r3, [r7, #0]
    3a56:	18d0      	adds	r0, r2, r3
    3a58:	f243 02f8 	movw	r2, #12536	; 0x30f8
    3a5c:	f2c2 0201 	movt	r2, #8193	; 0x2001
    3a60:	460b      	mov	r3, r1
    3a62:	005b      	lsls	r3, r3, #1
    3a64:	440b      	add	r3, r1
    3a66:	009b      	lsls	r3, r3, #2
    3a68:	4413      	add	r3, r2
    3a6a:	3304      	adds	r3, #4
    3a6c:	6018      	str	r0, [r3, #0]
    3a6e:	687b      	ldr	r3, [r7, #4]
    3a70:	005a      	lsls	r2, r3, #1
    3a72:	683b      	ldr	r3, [r7, #0]
    3a74:	4413      	add	r3, r2
    3a76:	1c59      	adds	r1, r3, #1
    3a78:	687a      	ldr	r2, [r7, #4]
    3a7a:	4613      	mov	r3, r2
    3a7c:	005b      	lsls	r3, r3, #1
    3a7e:	1898      	adds	r0, r3, r2
    3a80:	f243 02f8 	movw	r2, #12536	; 0x30f8
    3a84:	f2c2 0201 	movt	r2, #8193	; 0x2001
    3a88:	460b      	mov	r3, r1
    3a8a:	005b      	lsls	r3, r3, #1
    3a8c:	440b      	add	r3, r1
    3a8e:	009b      	lsls	r3, r3, #2
    3a90:	4413      	add	r3, r2
    3a92:	3308      	adds	r3, #8
    3a94:	6018      	str	r0, [r3, #0]
    3a96:	687b      	ldr	r3, [r7, #4]
    3a98:	005a      	lsls	r2, r3, #1
    3a9a:	683b      	ldr	r3, [r7, #0]
    3a9c:	4413      	add	r3, r2
    3a9e:	1c59      	adds	r1, r3, #1
    3aa0:	f243 02f8 	movw	r2, #12536	; 0x30f8
    3aa4:	f2c2 0201 	movt	r2, #8193	; 0x2001
    3aa8:	460b      	mov	r3, r1
    3aaa:	005b      	lsls	r3, r3, #1
    3aac:	440b      	add	r3, r1
    3aae:	009b      	lsls	r3, r3, #2
    3ab0:	4413      	add	r3, r2
    3ab2:	330c      	adds	r3, #12
    3ab4:	2201      	movs	r2, #1
    3ab6:	601a      	str	r2, [r3, #0]
    3ab8:	683b      	ldr	r3, [r7, #0]
    3aba:	3301      	adds	r3, #1
    3abc:	603b      	str	r3, [r7, #0]
    3abe:	683b      	ldr	r3, [r7, #0]
    3ac0:	2b02      	cmp	r3, #2
    3ac2:	ddbe      	ble.n	3a42 <vAppInitialise+0x13a>
    3ac4:	687b      	ldr	r3, [r7, #4]
    3ac6:	3301      	adds	r3, #1
    3ac8:	607b      	str	r3, [r7, #4]
    3aca:	687b      	ldr	r3, [r7, #4]
    3acc:	2b00      	cmp	r3, #0
    3ace:	ddb5      	ble.n	3a3c <vAppInitialise+0x134>
    3ad0:	370c      	adds	r7, #12
    3ad2:	46bd      	mov	sp, r7
    3ad4:	f85d 7b04 	ldr.w	r7, [sp], #4
    3ad8:	4770      	bx	lr
    3ada:	bf00      	nop

00003adc <vListInitialise>:
    3adc:	b480      	push	{r7}
    3ade:	b083      	sub	sp, #12
    3ae0:	af00      	add	r7, sp, #0
    3ae2:	6078      	str	r0, [r7, #4]
    3ae4:	687b      	ldr	r3, [r7, #4]
    3ae6:	f103 0208 	add.w	r2, r3, #8
    3aea:	687b      	ldr	r3, [r7, #4]
    3aec:	605a      	str	r2, [r3, #4]
    3aee:	687b      	ldr	r3, [r7, #4]
    3af0:	f04f 32ff 	mov.w	r2, #4294967295
    3af4:	609a      	str	r2, [r3, #8]
    3af6:	687b      	ldr	r3, [r7, #4]
    3af8:	f103 0208 	add.w	r2, r3, #8
    3afc:	687b      	ldr	r3, [r7, #4]
    3afe:	60da      	str	r2, [r3, #12]
    3b00:	687b      	ldr	r3, [r7, #4]
    3b02:	f103 0208 	add.w	r2, r3, #8
    3b06:	687b      	ldr	r3, [r7, #4]
    3b08:	611a      	str	r2, [r3, #16]
    3b0a:	687b      	ldr	r3, [r7, #4]
    3b0c:	2200      	movs	r2, #0
    3b0e:	601a      	str	r2, [r3, #0]
    3b10:	370c      	adds	r7, #12
    3b12:	46bd      	mov	sp, r7
    3b14:	f85d 7b04 	ldr.w	r7, [sp], #4
    3b18:	4770      	bx	lr
    3b1a:	bf00      	nop

00003b1c <vListInitialiseItem>:
    3b1c:	b480      	push	{r7}
    3b1e:	b083      	sub	sp, #12
    3b20:	af00      	add	r7, sp, #0
    3b22:	6078      	str	r0, [r7, #4]
    3b24:	687b      	ldr	r3, [r7, #4]
    3b26:	2200      	movs	r2, #0
    3b28:	611a      	str	r2, [r3, #16]
    3b2a:	370c      	adds	r7, #12
    3b2c:	46bd      	mov	sp, r7
    3b2e:	f85d 7b04 	ldr.w	r7, [sp], #4
    3b32:	4770      	bx	lr

00003b34 <vListInsertEnd>:
    3b34:	b480      	push	{r7}
    3b36:	b085      	sub	sp, #20
    3b38:	af00      	add	r7, sp, #0
    3b3a:	6078      	str	r0, [r7, #4]
    3b3c:	6039      	str	r1, [r7, #0]
    3b3e:	687b      	ldr	r3, [r7, #4]
    3b40:	685b      	ldr	r3, [r3, #4]
    3b42:	60fb      	str	r3, [r7, #12]
    3b44:	68fb      	ldr	r3, [r7, #12]
    3b46:	685a      	ldr	r2, [r3, #4]
    3b48:	683b      	ldr	r3, [r7, #0]
    3b4a:	605a      	str	r2, [r3, #4]
    3b4c:	687b      	ldr	r3, [r7, #4]
    3b4e:	685a      	ldr	r2, [r3, #4]
    3b50:	683b      	ldr	r3, [r7, #0]
    3b52:	609a      	str	r2, [r3, #8]
    3b54:	68fb      	ldr	r3, [r7, #12]
    3b56:	685b      	ldr	r3, [r3, #4]
    3b58:	683a      	ldr	r2, [r7, #0]
    3b5a:	609a      	str	r2, [r3, #8]
    3b5c:	68fb      	ldr	r3, [r7, #12]
    3b5e:	683a      	ldr	r2, [r7, #0]
    3b60:	605a      	str	r2, [r3, #4]
    3b62:	687b      	ldr	r3, [r7, #4]
    3b64:	683a      	ldr	r2, [r7, #0]
    3b66:	605a      	str	r2, [r3, #4]
    3b68:	683b      	ldr	r3, [r7, #0]
    3b6a:	687a      	ldr	r2, [r7, #4]
    3b6c:	611a      	str	r2, [r3, #16]
    3b6e:	687b      	ldr	r3, [r7, #4]
    3b70:	681b      	ldr	r3, [r3, #0]
    3b72:	1c5a      	adds	r2, r3, #1
    3b74:	687b      	ldr	r3, [r7, #4]
    3b76:	601a      	str	r2, [r3, #0]
    3b78:	3714      	adds	r7, #20
    3b7a:	46bd      	mov	sp, r7
    3b7c:	f85d 7b04 	ldr.w	r7, [sp], #4
    3b80:	4770      	bx	lr
    3b82:	bf00      	nop

00003b84 <vListInsert>:
    3b84:	b480      	push	{r7}
    3b86:	b085      	sub	sp, #20
    3b88:	af00      	add	r7, sp, #0
    3b8a:	6078      	str	r0, [r7, #4]
    3b8c:	6039      	str	r1, [r7, #0]
    3b8e:	683b      	ldr	r3, [r7, #0]
    3b90:	681b      	ldr	r3, [r3, #0]
    3b92:	60bb      	str	r3, [r7, #8]
    3b94:	68bb      	ldr	r3, [r7, #8]
    3b96:	f1b3 3fff 	cmp.w	r3, #4294967295
    3b9a:	d103      	bne.n	3ba4 <vListInsert+0x20>
    3b9c:	687b      	ldr	r3, [r7, #4]
    3b9e:	691b      	ldr	r3, [r3, #16]
    3ba0:	60fb      	str	r3, [r7, #12]
    3ba2:	e00c      	b.n	3bbe <vListInsert+0x3a>
    3ba4:	687b      	ldr	r3, [r7, #4]
    3ba6:	3308      	adds	r3, #8
    3ba8:	60fb      	str	r3, [r7, #12]
    3baa:	e002      	b.n	3bb2 <vListInsert+0x2e>
    3bac:	68fb      	ldr	r3, [r7, #12]
    3bae:	685b      	ldr	r3, [r3, #4]
    3bb0:	60fb      	str	r3, [r7, #12]
    3bb2:	68fb      	ldr	r3, [r7, #12]
    3bb4:	685b      	ldr	r3, [r3, #4]
    3bb6:	681a      	ldr	r2, [r3, #0]
    3bb8:	68bb      	ldr	r3, [r7, #8]
    3bba:	429a      	cmp	r2, r3
    3bbc:	d9f6      	bls.n	3bac <vListInsert+0x28>
    3bbe:	68fb      	ldr	r3, [r7, #12]
    3bc0:	685a      	ldr	r2, [r3, #4]
    3bc2:	683b      	ldr	r3, [r7, #0]
    3bc4:	605a      	str	r2, [r3, #4]
    3bc6:	683b      	ldr	r3, [r7, #0]
    3bc8:	685b      	ldr	r3, [r3, #4]
    3bca:	683a      	ldr	r2, [r7, #0]
    3bcc:	609a      	str	r2, [r3, #8]
    3bce:	683b      	ldr	r3, [r7, #0]
    3bd0:	68fa      	ldr	r2, [r7, #12]
    3bd2:	609a      	str	r2, [r3, #8]
    3bd4:	68fb      	ldr	r3, [r7, #12]
    3bd6:	683a      	ldr	r2, [r7, #0]
    3bd8:	605a      	str	r2, [r3, #4]
    3bda:	683b      	ldr	r3, [r7, #0]
    3bdc:	687a      	ldr	r2, [r7, #4]
    3bde:	611a      	str	r2, [r3, #16]
    3be0:	687b      	ldr	r3, [r7, #4]
    3be2:	681b      	ldr	r3, [r3, #0]
    3be4:	1c5a      	adds	r2, r3, #1
    3be6:	687b      	ldr	r3, [r7, #4]
    3be8:	601a      	str	r2, [r3, #0]
    3bea:	3714      	adds	r7, #20
    3bec:	46bd      	mov	sp, r7
    3bee:	f85d 7b04 	ldr.w	r7, [sp], #4
    3bf2:	4770      	bx	lr

00003bf4 <vListRemove>:
    3bf4:	b480      	push	{r7}
    3bf6:	b085      	sub	sp, #20
    3bf8:	af00      	add	r7, sp, #0
    3bfa:	6078      	str	r0, [r7, #4]
    3bfc:	687b      	ldr	r3, [r7, #4]
    3bfe:	685b      	ldr	r3, [r3, #4]
    3c00:	687a      	ldr	r2, [r7, #4]
    3c02:	6892      	ldr	r2, [r2, #8]
    3c04:	609a      	str	r2, [r3, #8]
    3c06:	687b      	ldr	r3, [r7, #4]
    3c08:	689b      	ldr	r3, [r3, #8]
    3c0a:	687a      	ldr	r2, [r7, #4]
    3c0c:	6852      	ldr	r2, [r2, #4]
    3c0e:	605a      	str	r2, [r3, #4]
    3c10:	687b      	ldr	r3, [r7, #4]
    3c12:	691b      	ldr	r3, [r3, #16]
    3c14:	60fb      	str	r3, [r7, #12]
    3c16:	68fb      	ldr	r3, [r7, #12]
    3c18:	685a      	ldr	r2, [r3, #4]
    3c1a:	687b      	ldr	r3, [r7, #4]
    3c1c:	429a      	cmp	r2, r3
    3c1e:	d103      	bne.n	3c28 <vListRemove+0x34>
    3c20:	687b      	ldr	r3, [r7, #4]
    3c22:	689a      	ldr	r2, [r3, #8]
    3c24:	68fb      	ldr	r3, [r7, #12]
    3c26:	605a      	str	r2, [r3, #4]
    3c28:	687b      	ldr	r3, [r7, #4]
    3c2a:	2200      	movs	r2, #0
    3c2c:	611a      	str	r2, [r3, #16]
    3c2e:	68fb      	ldr	r3, [r7, #12]
    3c30:	681b      	ldr	r3, [r3, #0]
    3c32:	1e5a      	subs	r2, r3, #1
    3c34:	68fb      	ldr	r3, [r7, #12]
    3c36:	601a      	str	r2, [r3, #0]
    3c38:	3714      	adds	r7, #20
    3c3a:	46bd      	mov	sp, r7
    3c3c:	f85d 7b04 	ldr.w	r7, [sp], #4
    3c40:	4770      	bx	lr
    3c42:	bf00      	nop

00003c44 <xQueueGenericReset>:
    3c44:	b580      	push	{r7, lr}
    3c46:	b084      	sub	sp, #16
    3c48:	af00      	add	r7, sp, #0
    3c4a:	6078      	str	r0, [r7, #4]
    3c4c:	6039      	str	r1, [r7, #0]
    3c4e:	2301      	movs	r3, #1
    3c50:	60fb      	str	r3, [r7, #12]
    3c52:	683b      	ldr	r3, [r7, #0]
    3c54:	2b01      	cmp	r3, #1
    3c56:	d00b      	beq.n	3c70 <xQueueGenericReset+0x2c>
    3c58:	687b      	ldr	r3, [r7, #4]
    3c5a:	6a5b      	ldr	r3, [r3, #36]	; 0x24
    3c5c:	2b00      	cmp	r3, #0
    3c5e:	d001      	beq.n	3c64 <xQueueGenericReset+0x20>
    3c60:	2300      	movs	r3, #0
    3c62:	60fb      	str	r3, [r7, #12]
    3c64:	687b      	ldr	r3, [r7, #4]
    3c66:	691b      	ldr	r3, [r3, #16]
    3c68:	2b00      	cmp	r3, #0
    3c6a:	d001      	beq.n	3c70 <xQueueGenericReset+0x2c>
    3c6c:	2300      	movs	r3, #0
    3c6e:	60fb      	str	r3, [r7, #12]
    3c70:	68fb      	ldr	r3, [r7, #12]
    3c72:	2b01      	cmp	r3, #1
    3c74:	d12f      	bne.n	3cd6 <xQueueGenericReset+0x92>
    3c76:	687b      	ldr	r3, [r7, #4]
    3c78:	681a      	ldr	r2, [r3, #0]
    3c7a:	687b      	ldr	r3, [r7, #4]
    3c7c:	6bdb      	ldr	r3, [r3, #60]	; 0x3c
    3c7e:	6879      	ldr	r1, [r7, #4]
    3c80:	6c09      	ldr	r1, [r1, #64]	; 0x40
    3c82:	fb01 f303 	mul.w	r3, r1, r3
    3c86:	441a      	add	r2, r3
    3c88:	687b      	ldr	r3, [r7, #4]
    3c8a:	605a      	str	r2, [r3, #4]
    3c8c:	687b      	ldr	r3, [r7, #4]
    3c8e:	2200      	movs	r2, #0
    3c90:	639a      	str	r2, [r3, #56]	; 0x38
    3c92:	687b      	ldr	r3, [r7, #4]
    3c94:	681a      	ldr	r2, [r3, #0]
    3c96:	687b      	ldr	r3, [r7, #4]
    3c98:	609a      	str	r2, [r3, #8]
    3c9a:	687b      	ldr	r3, [r7, #4]
    3c9c:	681a      	ldr	r2, [r3, #0]
    3c9e:	687b      	ldr	r3, [r7, #4]
    3ca0:	6bdb      	ldr	r3, [r3, #60]	; 0x3c
    3ca2:	3b01      	subs	r3, #1
    3ca4:	6879      	ldr	r1, [r7, #4]
    3ca6:	6c09      	ldr	r1, [r1, #64]	; 0x40
    3ca8:	fb01 f303 	mul.w	r3, r1, r3
    3cac:	441a      	add	r2, r3
    3cae:	687b      	ldr	r3, [r7, #4]
    3cb0:	60da      	str	r2, [r3, #12]
    3cb2:	687b      	ldr	r3, [r7, #4]
    3cb4:	f04f 32ff 	mov.w	r2, #4294967295
    3cb8:	645a      	str	r2, [r3, #68]	; 0x44
    3cba:	687b      	ldr	r3, [r7, #4]
    3cbc:	f04f 32ff 	mov.w	r2, #4294967295
    3cc0:	649a      	str	r2, [r3, #72]	; 0x48
    3cc2:	687b      	ldr	r3, [r7, #4]
    3cc4:	3310      	adds	r3, #16
    3cc6:	4618      	mov	r0, r3
    3cc8:	f7ff ff08 	bl	3adc <vListInitialise>
    3ccc:	687b      	ldr	r3, [r7, #4]
    3cce:	3324      	adds	r3, #36	; 0x24
    3cd0:	4618      	mov	r0, r3
    3cd2:	f7ff ff03 	bl	3adc <vListInitialise>
    3cd6:	68fb      	ldr	r3, [r7, #12]
    3cd8:	4618      	mov	r0, r3
    3cda:	3710      	adds	r7, #16
    3cdc:	46bd      	mov	sp, r7
    3cde:	bd80      	pop	{r7, pc}

00003ce0 <xQueueGenericCreate>:
    3ce0:	b580      	push	{r7, lr}
    3ce2:	b088      	sub	sp, #32
    3ce4:	af00      	add	r7, sp, #0
    3ce6:	60f8      	str	r0, [r7, #12]
    3ce8:	60b9      	str	r1, [r7, #8]
    3cea:	4613      	mov	r3, r2
    3cec:	71fb      	strb	r3, [r7, #7]
    3cee:	2300      	movs	r3, #0
    3cf0:	61fb      	str	r3, [r7, #28]
    3cf2:	68fb      	ldr	r3, [r7, #12]
    3cf4:	2b00      	cmp	r3, #0
    3cf6:	d026      	beq.n	3d46 <xQueueGenericCreate+0x66>
    3cf8:	204c      	movs	r0, #76	; 0x4c
    3cfa:	f001 fda7 	bl	584c <pvPortMalloc>
    3cfe:	61b8      	str	r0, [r7, #24]
    3d00:	69bb      	ldr	r3, [r7, #24]
    3d02:	2b00      	cmp	r3, #0
    3d04:	d01f      	beq.n	3d46 <xQueueGenericCreate+0x66>
    3d06:	68fb      	ldr	r3, [r7, #12]
    3d08:	68ba      	ldr	r2, [r7, #8]
    3d0a:	fb02 f303 	mul.w	r3, r2, r3
    3d0e:	3301      	adds	r3, #1
    3d10:	617b      	str	r3, [r7, #20]
    3d12:	6978      	ldr	r0, [r7, #20]
    3d14:	f001 fd9a 	bl	584c <pvPortMalloc>
    3d18:	4602      	mov	r2, r0
    3d1a:	69bb      	ldr	r3, [r7, #24]
    3d1c:	601a      	str	r2, [r3, #0]
    3d1e:	69bb      	ldr	r3, [r7, #24]
    3d20:	681b      	ldr	r3, [r3, #0]
    3d22:	2b00      	cmp	r3, #0
    3d24:	d00c      	beq.n	3d40 <xQueueGenericCreate+0x60>
    3d26:	69bb      	ldr	r3, [r7, #24]
    3d28:	68fa      	ldr	r2, [r7, #12]
    3d2a:	63da      	str	r2, [r3, #60]	; 0x3c
    3d2c:	69bb      	ldr	r3, [r7, #24]
    3d2e:	68ba      	ldr	r2, [r7, #8]
    3d30:	641a      	str	r2, [r3, #64]	; 0x40
    3d32:	69b8      	ldr	r0, [r7, #24]
    3d34:	2101      	movs	r1, #1
    3d36:	f7ff ff85 	bl	3c44 <xQueueGenericReset>
    3d3a:	69bb      	ldr	r3, [r7, #24]
    3d3c:	61fb      	str	r3, [r7, #28]
    3d3e:	e002      	b.n	3d46 <xQueueGenericCreate+0x66>
    3d40:	69b8      	ldr	r0, [r7, #24]
    3d42:	f001 fe47 	bl	59d4 <vPortFree>
    3d46:	69fb      	ldr	r3, [r7, #28]
    3d48:	4618      	mov	r0, r3
    3d4a:	3720      	adds	r7, #32
    3d4c:	46bd      	mov	sp, r7
    3d4e:	bd80      	pop	{r7, pc}

00003d50 <xQueueCreateMutex>:
    3d50:	b580      	push	{r7, lr}
    3d52:	b084      	sub	sp, #16
    3d54:	af00      	add	r7, sp, #0
    3d56:	4603      	mov	r3, r0
    3d58:	71fb      	strb	r3, [r7, #7]
    3d5a:	204c      	movs	r0, #76	; 0x4c
    3d5c:	f001 fd76 	bl	584c <pvPortMalloc>
    3d60:	60f8      	str	r0, [r7, #12]
    3d62:	68fb      	ldr	r3, [r7, #12]
    3d64:	2b00      	cmp	r3, #0
    3d66:	d02c      	beq.n	3dc2 <xQueueCreateMutex+0x72>
    3d68:	68fb      	ldr	r3, [r7, #12]
    3d6a:	2200      	movs	r2, #0
    3d6c:	605a      	str	r2, [r3, #4]
    3d6e:	68fb      	ldr	r3, [r7, #12]
    3d70:	2200      	movs	r2, #0
    3d72:	601a      	str	r2, [r3, #0]
    3d74:	68fb      	ldr	r3, [r7, #12]
    3d76:	2200      	movs	r2, #0
    3d78:	609a      	str	r2, [r3, #8]
    3d7a:	68fb      	ldr	r3, [r7, #12]
    3d7c:	2200      	movs	r2, #0
    3d7e:	60da      	str	r2, [r3, #12]
    3d80:	68fb      	ldr	r3, [r7, #12]
    3d82:	2200      	movs	r2, #0
    3d84:	639a      	str	r2, [r3, #56]	; 0x38
    3d86:	68fb      	ldr	r3, [r7, #12]
    3d88:	2201      	movs	r2, #1
    3d8a:	63da      	str	r2, [r3, #60]	; 0x3c
    3d8c:	68fb      	ldr	r3, [r7, #12]
    3d8e:	2200      	movs	r2, #0
    3d90:	641a      	str	r2, [r3, #64]	; 0x40
    3d92:	68fb      	ldr	r3, [r7, #12]
    3d94:	f04f 32ff 	mov.w	r2, #4294967295
    3d98:	645a      	str	r2, [r3, #68]	; 0x44
    3d9a:	68fb      	ldr	r3, [r7, #12]
    3d9c:	f04f 32ff 	mov.w	r2, #4294967295
    3da0:	649a      	str	r2, [r3, #72]	; 0x48
    3da2:	68fb      	ldr	r3, [r7, #12]
    3da4:	3310      	adds	r3, #16
    3da6:	4618      	mov	r0, r3
    3da8:	f7ff fe98 	bl	3adc <vListInitialise>
    3dac:	68fb      	ldr	r3, [r7, #12]
    3dae:	3324      	adds	r3, #36	; 0x24
    3db0:	4618      	mov	r0, r3
    3db2:	f7ff fe93 	bl	3adc <vListInitialise>
    3db6:	68f8      	ldr	r0, [r7, #12]
    3db8:	2100      	movs	r1, #0
    3dba:	2200      	movs	r2, #0
    3dbc:	2300      	movs	r3, #0
    3dbe:	f000 f81d 	bl	3dfc <xQueueGenericSend>
    3dc2:	68fb      	ldr	r3, [r7, #12]
    3dc4:	4618      	mov	r0, r3
    3dc6:	3710      	adds	r7, #16
    3dc8:	46bd      	mov	sp, r7
    3dca:	bd80      	pop	{r7, pc}

00003dcc <xQueueGetMutexHolder>:
    3dcc:	b580      	push	{r7, lr}
    3dce:	b084      	sub	sp, #16
    3dd0:	af00      	add	r7, sp, #0
    3dd2:	6078      	str	r0, [r7, #4]
    3dd4:	f001 fcc0 	bl	5758 <vPortEnterCritical>
    3dd8:	687b      	ldr	r3, [r7, #4]
    3dda:	681b      	ldr	r3, [r3, #0]
    3ddc:	2b00      	cmp	r3, #0
    3dde:	d103      	bne.n	3de8 <xQueueGetMutexHolder+0x1c>
    3de0:	687b      	ldr	r3, [r7, #4]
    3de2:	685b      	ldr	r3, [r3, #4]
    3de4:	60fb      	str	r3, [r7, #12]
    3de6:	e001      	b.n	3dec <xQueueGetMutexHolder+0x20>
    3de8:	2300      	movs	r3, #0
    3dea:	60fb      	str	r3, [r7, #12]
    3dec:	f001 fcca 	bl	5784 <vPortExitCritical>
    3df0:	68fb      	ldr	r3, [r7, #12]
    3df2:	4618      	mov	r0, r3
    3df4:	3710      	adds	r7, #16
    3df6:	46bd      	mov	sp, r7
    3df8:	bd80      	pop	{r7, pc}
    3dfa:	bf00      	nop

00003dfc <xQueueGenericSend>:
    3dfc:	b580      	push	{r7, lr}
    3dfe:	b088      	sub	sp, #32
    3e00:	af00      	add	r7, sp, #0
    3e02:	60f8      	str	r0, [r7, #12]
    3e04:	60b9      	str	r1, [r7, #8]
    3e06:	607a      	str	r2, [r7, #4]
    3e08:	603b      	str	r3, [r7, #0]
    3e0a:	2300      	movs	r3, #0
    3e0c:	61fb      	str	r3, [r7, #28]
    3e0e:	f001 fca3 	bl	5758 <vPortEnterCritical>
    3e12:	68fb      	ldr	r3, [r7, #12]
    3e14:	6b9a      	ldr	r2, [r3, #56]	; 0x38
    3e16:	68fb      	ldr	r3, [r7, #12]
    3e18:	6bdb      	ldr	r3, [r3, #60]	; 0x3c
    3e1a:	429a      	cmp	r2, r3
    3e1c:	d216      	bcs.n	3e4c <xQueueGenericSend+0x50>
    3e1e:	68f8      	ldr	r0, [r7, #12]
    3e20:	68b9      	ldr	r1, [r7, #8]
    3e22:	683a      	ldr	r2, [r7, #0]
    3e24:	f000 f9d6 	bl	41d4 <prvCopyDataToQueue>
    3e28:	68fb      	ldr	r3, [r7, #12]
    3e2a:	6a5b      	ldr	r3, [r3, #36]	; 0x24
    3e2c:	2b00      	cmp	r3, #0
    3e2e:	d009      	beq.n	3e44 <xQueueGenericSend+0x48>
    3e30:	68fb      	ldr	r3, [r7, #12]
    3e32:	3324      	adds	r3, #36	; 0x24
    3e34:	4618      	mov	r0, r3
    3e36:	f001 f905 	bl	5044 <xTaskRemoveFromEventList>
    3e3a:	4603      	mov	r3, r0
    3e3c:	2b01      	cmp	r3, #1
    3e3e:	d101      	bne.n	3e44 <xQueueGenericSend+0x48>
    3e40:	f001 fc7c 	bl	573c <vPortYieldFromISR>
    3e44:	f001 fc9e 	bl	5784 <vPortExitCritical>
    3e48:	2301      	movs	r3, #1
    3e4a:	e059      	b.n	3f00 <xQueueGenericSend+0x104>
    3e4c:	687b      	ldr	r3, [r7, #4]
    3e4e:	2b00      	cmp	r3, #0
    3e50:	d103      	bne.n	3e5a <xQueueGenericSend+0x5e>
    3e52:	f001 fc97 	bl	5784 <vPortExitCritical>
    3e56:	2300      	movs	r3, #0
    3e58:	e052      	b.n	3f00 <xQueueGenericSend+0x104>
    3e5a:	69fb      	ldr	r3, [r7, #28]
    3e5c:	2b00      	cmp	r3, #0
    3e5e:	d106      	bne.n	3e6e <xQueueGenericSend+0x72>
    3e60:	f107 0314 	add.w	r3, r7, #20
    3e64:	4618      	mov	r0, r3
    3e66:	f001 f945 	bl	50f4 <vTaskSetTimeOutState>
    3e6a:	2301      	movs	r3, #1
    3e6c:	61fb      	str	r3, [r7, #28]
    3e6e:	f001 fc89 	bl	5784 <vPortExitCritical>
    3e72:	f000 fe93 	bl	4b9c <vTaskSuspendAll>
    3e76:	f001 fc6f 	bl	5758 <vPortEnterCritical>
    3e7a:	68fb      	ldr	r3, [r7, #12]
    3e7c:	6c5b      	ldr	r3, [r3, #68]	; 0x44
    3e7e:	f1b3 3fff 	cmp.w	r3, #4294967295
    3e82:	d102      	bne.n	3e8a <xQueueGenericSend+0x8e>
    3e84:	68fb      	ldr	r3, [r7, #12]
    3e86:	2200      	movs	r2, #0
    3e88:	645a      	str	r2, [r3, #68]	; 0x44
    3e8a:	68fb      	ldr	r3, [r7, #12]
    3e8c:	6c9b      	ldr	r3, [r3, #72]	; 0x48
    3e8e:	f1b3 3fff 	cmp.w	r3, #4294967295
    3e92:	d102      	bne.n	3e9a <xQueueGenericSend+0x9e>
    3e94:	68fb      	ldr	r3, [r7, #12]
    3e96:	2200      	movs	r2, #0
    3e98:	649a      	str	r2, [r3, #72]	; 0x48
    3e9a:	f001 fc73 	bl	5784 <vPortExitCritical>
    3e9e:	f107 0214 	add.w	r2, r7, #20
    3ea2:	1d3b      	adds	r3, r7, #4
    3ea4:	4610      	mov	r0, r2
    3ea6:	4619      	mov	r1, r3
    3ea8:	f001 f93c 	bl	5124 <xTaskCheckForTimeOut>
    3eac:	4603      	mov	r3, r0
    3eae:	2b00      	cmp	r3, #0
    3eb0:	d11e      	bne.n	3ef0 <xQueueGenericSend+0xf4>
    3eb2:	68f8      	ldr	r0, [r7, #12]
    3eb4:	f000 fa86 	bl	43c4 <prvIsQueueFull>
    3eb8:	4603      	mov	r3, r0
    3eba:	2b00      	cmp	r3, #0
    3ebc:	d012      	beq.n	3ee4 <xQueueGenericSend+0xe8>
    3ebe:	68fb      	ldr	r3, [r7, #12]
    3ec0:	f103 0210 	add.w	r2, r3, #16
    3ec4:	687b      	ldr	r3, [r7, #4]
    3ec6:	4610      	mov	r0, r2
    3ec8:	4619      	mov	r1, r3
    3eca:	f001 f883 	bl	4fd4 <vTaskPlaceOnEventList>
    3ece:	68f8      	ldr	r0, [r7, #12]
    3ed0:	f000 fa02 	bl	42d8 <prvUnlockQueue>
    3ed4:	f000 fe74 	bl	4bc0 <xTaskResumeAll>
    3ed8:	4603      	mov	r3, r0
    3eda:	2b00      	cmp	r3, #0
    3edc:	d10f      	bne.n	3efe <xQueueGenericSend+0x102>
    3ede:	f001 fc2d 	bl	573c <vPortYieldFromISR>
    3ee2:	e00c      	b.n	3efe <xQueueGenericSend+0x102>
    3ee4:	68f8      	ldr	r0, [r7, #12]
    3ee6:	f000 f9f7 	bl	42d8 <prvUnlockQueue>
    3eea:	f000 fe69 	bl	4bc0 <xTaskResumeAll>
    3eee:	e78e      	b.n	3e0e <xQueueGenericSend+0x12>
    3ef0:	68f8      	ldr	r0, [r7, #12]
    3ef2:	f000 f9f1 	bl	42d8 <prvUnlockQueue>
    3ef6:	f000 fe63 	bl	4bc0 <xTaskResumeAll>
    3efa:	2300      	movs	r3, #0
    3efc:	e000      	b.n	3f00 <xQueueGenericSend+0x104>
    3efe:	e786      	b.n	3e0e <xQueueGenericSend+0x12>
    3f00:	4618      	mov	r0, r3
    3f02:	3720      	adds	r7, #32
    3f04:	46bd      	mov	sp, r7
    3f06:	bd80      	pop	{r7, pc}

00003f08 <xQueueGenericSendFromISR>:
    3f08:	b580      	push	{r7, lr}
    3f0a:	b086      	sub	sp, #24
    3f0c:	af00      	add	r7, sp, #0
    3f0e:	60f8      	str	r0, [r7, #12]
    3f10:	60b9      	str	r1, [r7, #8]
    3f12:	607a      	str	r2, [r7, #4]
    3f14:	603b      	str	r3, [r7, #0]
    3f16:	2300      	movs	r3, #0
    3f18:	613b      	str	r3, [r7, #16]
    3f1a:	f04f 00bf 	mov.w	r0, #191	; 0xbf
    3f1e:	f380 8811 	msr	BASEPRI, r0
    3f22:	68fb      	ldr	r3, [r7, #12]
    3f24:	6b9a      	ldr	r2, [r3, #56]	; 0x38
    3f26:	68fb      	ldr	r3, [r7, #12]
    3f28:	6bdb      	ldr	r3, [r3, #60]	; 0x3c
    3f2a:	429a      	cmp	r2, r3
    3f2c:	d221      	bcs.n	3f72 <xQueueGenericSendFromISR+0x6a>
    3f2e:	68f8      	ldr	r0, [r7, #12]
    3f30:	68b9      	ldr	r1, [r7, #8]
    3f32:	683a      	ldr	r2, [r7, #0]
    3f34:	f000 f94e 	bl	41d4 <prvCopyDataToQueue>
    3f38:	68fb      	ldr	r3, [r7, #12]
    3f3a:	6c9b      	ldr	r3, [r3, #72]	; 0x48
    3f3c:	f1b3 3fff 	cmp.w	r3, #4294967295
    3f40:	d10f      	bne.n	3f62 <xQueueGenericSendFromISR+0x5a>
    3f42:	68fb      	ldr	r3, [r7, #12]
    3f44:	6a5b      	ldr	r3, [r3, #36]	; 0x24
    3f46:	2b00      	cmp	r3, #0
    3f48:	d010      	beq.n	3f6c <xQueueGenericSendFromISR+0x64>
    3f4a:	68fb      	ldr	r3, [r7, #12]
    3f4c:	3324      	adds	r3, #36	; 0x24
    3f4e:	4618      	mov	r0, r3
    3f50:	f001 f878 	bl	5044 <xTaskRemoveFromEventList>
    3f54:	4603      	mov	r3, r0
    3f56:	2b00      	cmp	r3, #0
    3f58:	d008      	beq.n	3f6c <xQueueGenericSendFromISR+0x64>
    3f5a:	687b      	ldr	r3, [r7, #4]
    3f5c:	2201      	movs	r2, #1
    3f5e:	601a      	str	r2, [r3, #0]
    3f60:	e004      	b.n	3f6c <xQueueGenericSendFromISR+0x64>
    3f62:	68fb      	ldr	r3, [r7, #12]
    3f64:	6c9b      	ldr	r3, [r3, #72]	; 0x48
    3f66:	1c5a      	adds	r2, r3, #1
    3f68:	68fb      	ldr	r3, [r7, #12]
    3f6a:	649a      	str	r2, [r3, #72]	; 0x48
    3f6c:	2301      	movs	r3, #1
    3f6e:	617b      	str	r3, [r7, #20]
    3f70:	e001      	b.n	3f76 <xQueueGenericSendFromISR+0x6e>
    3f72:	2300      	movs	r3, #0
    3f74:	617b      	str	r3, [r7, #20]
    3f76:	f04f 0000 	mov.w	r0, #0
    3f7a:	f380 8811 	msr	BASEPRI, r0
    3f7e:	697b      	ldr	r3, [r7, #20]
    3f80:	4618      	mov	r0, r3
    3f82:	3718      	adds	r7, #24
    3f84:	46bd      	mov	sp, r7
    3f86:	bd80      	pop	{r7, pc}

00003f88 <xQueueGenericReceive>:
    3f88:	b580      	push	{r7, lr}
    3f8a:	b088      	sub	sp, #32
    3f8c:	af00      	add	r7, sp, #0
    3f8e:	60f8      	str	r0, [r7, #12]
    3f90:	60b9      	str	r1, [r7, #8]
    3f92:	607a      	str	r2, [r7, #4]
    3f94:	603b      	str	r3, [r7, #0]
    3f96:	2300      	movs	r3, #0
    3f98:	61fb      	str	r3, [r7, #28]
    3f9a:	f001 fbdd 	bl	5758 <vPortEnterCritical>
    3f9e:	68fb      	ldr	r3, [r7, #12]
    3fa0:	6b9b      	ldr	r3, [r3, #56]	; 0x38
    3fa2:	2b00      	cmp	r3, #0
    3fa4:	d03b      	beq.n	401e <xQueueGenericReceive+0x96>
    3fa6:	68fb      	ldr	r3, [r7, #12]
    3fa8:	68db      	ldr	r3, [r3, #12]
    3faa:	61bb      	str	r3, [r7, #24]
    3fac:	68f8      	ldr	r0, [r7, #12]
    3fae:	68b9      	ldr	r1, [r7, #8]
    3fb0:	f000 f96c 	bl	428c <prvCopyDataFromQueue>
    3fb4:	683b      	ldr	r3, [r7, #0]
    3fb6:	2b00      	cmp	r3, #0
    3fb8:	d11c      	bne.n	3ff4 <xQueueGenericReceive+0x6c>
    3fba:	68fb      	ldr	r3, [r7, #12]
    3fbc:	6b9b      	ldr	r3, [r3, #56]	; 0x38
    3fbe:	1e5a      	subs	r2, r3, #1
    3fc0:	68fb      	ldr	r3, [r7, #12]
    3fc2:	639a      	str	r2, [r3, #56]	; 0x38
    3fc4:	68fb      	ldr	r3, [r7, #12]
    3fc6:	681b      	ldr	r3, [r3, #0]
    3fc8:	2b00      	cmp	r3, #0
    3fca:	d104      	bne.n	3fd6 <xQueueGenericReceive+0x4e>
    3fcc:	f001 fa5c 	bl	5488 <xTaskGetCurrentTaskHandle>
    3fd0:	4602      	mov	r2, r0
    3fd2:	68fb      	ldr	r3, [r7, #12]
    3fd4:	605a      	str	r2, [r3, #4]
    3fd6:	68fb      	ldr	r3, [r7, #12]
    3fd8:	691b      	ldr	r3, [r3, #16]
    3fda:	2b00      	cmp	r3, #0
    3fdc:	d01b      	beq.n	4016 <xQueueGenericReceive+0x8e>
    3fde:	68fb      	ldr	r3, [r7, #12]
    3fe0:	3310      	adds	r3, #16
    3fe2:	4618      	mov	r0, r3
    3fe4:	f001 f82e 	bl	5044 <xTaskRemoveFromEventList>
    3fe8:	4603      	mov	r3, r0
    3fea:	2b01      	cmp	r3, #1
    3fec:	d113      	bne.n	4016 <xQueueGenericReceive+0x8e>
    3fee:	f001 fba5 	bl	573c <vPortYieldFromISR>
    3ff2:	e010      	b.n	4016 <xQueueGenericReceive+0x8e>
    3ff4:	68fb      	ldr	r3, [r7, #12]
    3ff6:	69ba      	ldr	r2, [r7, #24]
    3ff8:	60da      	str	r2, [r3, #12]
    3ffa:	68fb      	ldr	r3, [r7, #12]
    3ffc:	6a5b      	ldr	r3, [r3, #36]	; 0x24
    3ffe:	2b00      	cmp	r3, #0
    4000:	d009      	beq.n	4016 <xQueueGenericReceive+0x8e>
    4002:	68fb      	ldr	r3, [r7, #12]
    4004:	3324      	adds	r3, #36	; 0x24
    4006:	4618      	mov	r0, r3
    4008:	f001 f81c 	bl	5044 <xTaskRemoveFromEventList>
    400c:	4603      	mov	r3, r0
    400e:	2b00      	cmp	r3, #0
    4010:	d001      	beq.n	4016 <xQueueGenericReceive+0x8e>
    4012:	f001 fb93 	bl	573c <vPortYieldFromISR>
    4016:	f001 fbb5 	bl	5784 <vPortExitCritical>
    401a:	2301      	movs	r3, #1
    401c:	e066      	b.n	40ec <xQueueGenericReceive+0x164>
    401e:	687b      	ldr	r3, [r7, #4]
    4020:	2b00      	cmp	r3, #0
    4022:	d103      	bne.n	402c <xQueueGenericReceive+0xa4>
    4024:	f001 fbae 	bl	5784 <vPortExitCritical>
    4028:	2300      	movs	r3, #0
    402a:	e05f      	b.n	40ec <xQueueGenericReceive+0x164>
    402c:	69fb      	ldr	r3, [r7, #28]
    402e:	2b00      	cmp	r3, #0
    4030:	d106      	bne.n	4040 <xQueueGenericReceive+0xb8>
    4032:	f107 0310 	add.w	r3, r7, #16
    4036:	4618      	mov	r0, r3
    4038:	f001 f85c 	bl	50f4 <vTaskSetTimeOutState>
    403c:	2301      	movs	r3, #1
    403e:	61fb      	str	r3, [r7, #28]
    4040:	f001 fba0 	bl	5784 <vPortExitCritical>
    4044:	f000 fdaa 	bl	4b9c <vTaskSuspendAll>
    4048:	f001 fb86 	bl	5758 <vPortEnterCritical>
    404c:	68fb      	ldr	r3, [r7, #12]
    404e:	6c5b      	ldr	r3, [r3, #68]	; 0x44
    4050:	f1b3 3fff 	cmp.w	r3, #4294967295
    4054:	d102      	bne.n	405c <xQueueGenericReceive+0xd4>
    4056:	68fb      	ldr	r3, [r7, #12]
    4058:	2200      	movs	r2, #0
    405a:	645a      	str	r2, [r3, #68]	; 0x44
    405c:	68fb      	ldr	r3, [r7, #12]
    405e:	6c9b      	ldr	r3, [r3, #72]	; 0x48
    4060:	f1b3 3fff 	cmp.w	r3, #4294967295
    4064:	d102      	bne.n	406c <xQueueGenericReceive+0xe4>
    4066:	68fb      	ldr	r3, [r7, #12]
    4068:	2200      	movs	r2, #0
    406a:	649a      	str	r2, [r3, #72]	; 0x48
    406c:	f001 fb8a 	bl	5784 <vPortExitCritical>
    4070:	f107 0210 	add.w	r2, r7, #16
    4074:	1d3b      	adds	r3, r7, #4
    4076:	4610      	mov	r0, r2
    4078:	4619      	mov	r1, r3
    407a:	f001 f853 	bl	5124 <xTaskCheckForTimeOut>
    407e:	4603      	mov	r3, r0
    4080:	2b00      	cmp	r3, #0
    4082:	d12b      	bne.n	40dc <xQueueGenericReceive+0x154>
    4084:	68f8      	ldr	r0, [r7, #12]
    4086:	f000 f973 	bl	4370 <prvIsQueueEmpty>
    408a:	4603      	mov	r3, r0
    408c:	2b00      	cmp	r3, #0
    408e:	d01f      	beq.n	40d0 <xQueueGenericReceive+0x148>
    4090:	68fb      	ldr	r3, [r7, #12]
    4092:	681b      	ldr	r3, [r3, #0]
    4094:	2b00      	cmp	r3, #0
    4096:	d108      	bne.n	40aa <xQueueGenericReceive+0x122>
    4098:	f001 fb5e 	bl	5758 <vPortEnterCritical>
    409c:	68fb      	ldr	r3, [r7, #12]
    409e:	685b      	ldr	r3, [r3, #4]
    40a0:	4618      	mov	r0, r3
    40a2:	f001 fa01 	bl	54a8 <vTaskPriorityInherit>
    40a6:	f001 fb6d 	bl	5784 <vPortExitCritical>
    40aa:	68fb      	ldr	r3, [r7, #12]
    40ac:	f103 0224 	add.w	r2, r3, #36	; 0x24
    40b0:	687b      	ldr	r3, [r7, #4]
    40b2:	4610      	mov	r0, r2
    40b4:	4619      	mov	r1, r3
    40b6:	f000 ff8d 	bl	4fd4 <vTaskPlaceOnEventList>
    40ba:	68f8      	ldr	r0, [r7, #12]
    40bc:	f000 f90c 	bl	42d8 <prvUnlockQueue>
    40c0:	f000 fd7e 	bl	4bc0 <xTaskResumeAll>
    40c4:	4603      	mov	r3, r0
    40c6:	2b00      	cmp	r3, #0
    40c8:	d10f      	bne.n	40ea <xQueueGenericReceive+0x162>
    40ca:	f001 fb37 	bl	573c <vPortYieldFromISR>
    40ce:	e00c      	b.n	40ea <xQueueGenericReceive+0x162>
    40d0:	68f8      	ldr	r0, [r7, #12]
    40d2:	f000 f901 	bl	42d8 <prvUnlockQueue>
    40d6:	f000 fd73 	bl	4bc0 <xTaskResumeAll>
    40da:	e75e      	b.n	3f9a <xQueueGenericReceive+0x12>
    40dc:	68f8      	ldr	r0, [r7, #12]
    40de:	f000 f8fb 	bl	42d8 <prvUnlockQueue>
    40e2:	f000 fd6d 	bl	4bc0 <xTaskResumeAll>
    40e6:	2300      	movs	r3, #0
    40e8:	e000      	b.n	40ec <xQueueGenericReceive+0x164>
    40ea:	e756      	b.n	3f9a <xQueueGenericReceive+0x12>
    40ec:	4618      	mov	r0, r3
    40ee:	3720      	adds	r7, #32
    40f0:	46bd      	mov	sp, r7
    40f2:	bd80      	pop	{r7, pc}

000040f4 <xQueueReceiveFromISR>:
    40f4:	b580      	push	{r7, lr}
    40f6:	b086      	sub	sp, #24
    40f8:	af00      	add	r7, sp, #0
    40fa:	60f8      	str	r0, [r7, #12]
    40fc:	60b9      	str	r1, [r7, #8]
    40fe:	607a      	str	r2, [r7, #4]
    4100:	2300      	movs	r3, #0
    4102:	613b      	str	r3, [r7, #16]
    4104:	f04f 00bf 	mov.w	r0, #191	; 0xbf
    4108:	f380 8811 	msr	BASEPRI, r0
    410c:	68fb      	ldr	r3, [r7, #12]
    410e:	6b9b      	ldr	r3, [r3, #56]	; 0x38
    4110:	2b00      	cmp	r3, #0
    4112:	d025      	beq.n	4160 <xQueueReceiveFromISR+0x6c>
    4114:	68f8      	ldr	r0, [r7, #12]
    4116:	68b9      	ldr	r1, [r7, #8]
    4118:	f000 f8b8 	bl	428c <prvCopyDataFromQueue>
    411c:	68fb      	ldr	r3, [r7, #12]
    411e:	6b9b      	ldr	r3, [r3, #56]	; 0x38
    4120:	1e5a      	subs	r2, r3, #1
    4122:	68fb      	ldr	r3, [r7, #12]
    4124:	639a      	str	r2, [r3, #56]	; 0x38
    4126:	68fb      	ldr	r3, [r7, #12]
    4128:	6c5b      	ldr	r3, [r3, #68]	; 0x44
    412a:	f1b3 3fff 	cmp.w	r3, #4294967295
    412e:	d10f      	bne.n	4150 <xQueueReceiveFromISR+0x5c>
    4130:	68fb      	ldr	r3, [r7, #12]
    4132:	691b      	ldr	r3, [r3, #16]
    4134:	2b00      	cmp	r3, #0
    4136:	d010      	beq.n	415a <xQueueReceiveFromISR+0x66>
    4138:	68fb      	ldr	r3, [r7, #12]
    413a:	3310      	adds	r3, #16
    413c:	4618      	mov	r0, r3
    413e:	f000 ff81 	bl	5044 <xTaskRemoveFromEventList>
    4142:	4603      	mov	r3, r0
    4144:	2b00      	cmp	r3, #0
    4146:	d008      	beq.n	415a <xQueueReceiveFromISR+0x66>
    4148:	687b      	ldr	r3, [r7, #4]
    414a:	2201      	movs	r2, #1
    414c:	601a      	str	r2, [r3, #0]
    414e:	e004      	b.n	415a <xQueueReceiveFromISR+0x66>
    4150:	68fb      	ldr	r3, [r7, #12]
    4152:	6c5b      	ldr	r3, [r3, #68]	; 0x44
    4154:	1c5a      	adds	r2, r3, #1
    4156:	68fb      	ldr	r3, [r7, #12]
    4158:	645a      	str	r2, [r3, #68]	; 0x44
    415a:	2301      	movs	r3, #1
    415c:	617b      	str	r3, [r7, #20]
    415e:	e001      	b.n	4164 <xQueueReceiveFromISR+0x70>
    4160:	2300      	movs	r3, #0
    4162:	617b      	str	r3, [r7, #20]
    4164:	f04f 0000 	mov.w	r0, #0
    4168:	f380 8811 	msr	BASEPRI, r0
    416c:	697b      	ldr	r3, [r7, #20]
    416e:	4618      	mov	r0, r3
    4170:	3718      	adds	r7, #24
    4172:	46bd      	mov	sp, r7
    4174:	bd80      	pop	{r7, pc}
    4176:	bf00      	nop

00004178 <uxQueueMessagesWaiting>:
    4178:	b580      	push	{r7, lr}
    417a:	b084      	sub	sp, #16
    417c:	af00      	add	r7, sp, #0
    417e:	6078      	str	r0, [r7, #4]
    4180:	f001 faea 	bl	5758 <vPortEnterCritical>
    4184:	687b      	ldr	r3, [r7, #4]
    4186:	6b9b      	ldr	r3, [r3, #56]	; 0x38
    4188:	60fb      	str	r3, [r7, #12]
    418a:	f001 fafb 	bl	5784 <vPortExitCritical>
    418e:	68fb      	ldr	r3, [r7, #12]
    4190:	4618      	mov	r0, r3
    4192:	3710      	adds	r7, #16
    4194:	46bd      	mov	sp, r7
    4196:	bd80      	pop	{r7, pc}

00004198 <uxQueueMessagesWaitingFromISR>:
    4198:	b480      	push	{r7}
    419a:	b085      	sub	sp, #20
    419c:	af00      	add	r7, sp, #0
    419e:	6078      	str	r0, [r7, #4]
    41a0:	687b      	ldr	r3, [r7, #4]
    41a2:	6b9b      	ldr	r3, [r3, #56]	; 0x38
    41a4:	60fb      	str	r3, [r7, #12]
    41a6:	68fb      	ldr	r3, [r7, #12]
    41a8:	4618      	mov	r0, r3
    41aa:	3714      	adds	r7, #20
    41ac:	46bd      	mov	sp, r7
    41ae:	f85d 7b04 	ldr.w	r7, [sp], #4
    41b2:	4770      	bx	lr

000041b4 <vQueueDelete>:
    41b4:	b580      	push	{r7, lr}
    41b6:	b082      	sub	sp, #8
    41b8:	af00      	add	r7, sp, #0
    41ba:	6078      	str	r0, [r7, #4]
    41bc:	687b      	ldr	r3, [r7, #4]
    41be:	681b      	ldr	r3, [r3, #0]
    41c0:	4618      	mov	r0, r3
    41c2:	f001 fc07 	bl	59d4 <vPortFree>
    41c6:	6878      	ldr	r0, [r7, #4]
    41c8:	f001 fc04 	bl	59d4 <vPortFree>
    41cc:	3708      	adds	r7, #8
    41ce:	46bd      	mov	sp, r7
    41d0:	bd80      	pop	{r7, pc}
    41d2:	bf00      	nop

000041d4 <prvCopyDataToQueue>:
    41d4:	b580      	push	{r7, lr}
    41d6:	b084      	sub	sp, #16
    41d8:	af00      	add	r7, sp, #0
    41da:	60f8      	str	r0, [r7, #12]
    41dc:	60b9      	str	r1, [r7, #8]
    41de:	607a      	str	r2, [r7, #4]
    41e0:	68fb      	ldr	r3, [r7, #12]
    41e2:	6c1b      	ldr	r3, [r3, #64]	; 0x40
    41e4:	2b00      	cmp	r3, #0
    41e6:	d10c      	bne.n	4202 <prvCopyDataToQueue+0x2e>
    41e8:	68fb      	ldr	r3, [r7, #12]
    41ea:	681b      	ldr	r3, [r3, #0]
    41ec:	2b00      	cmp	r3, #0
    41ee:	d145      	bne.n	427c <prvCopyDataToQueue+0xa8>
    41f0:	68fb      	ldr	r3, [r7, #12]
    41f2:	685b      	ldr	r3, [r3, #4]
    41f4:	4618      	mov	r0, r3
    41f6:	f001 f9bb 	bl	5570 <vTaskPriorityDisinherit>
    41fa:	68fb      	ldr	r3, [r7, #12]
    41fc:	2200      	movs	r2, #0
    41fe:	605a      	str	r2, [r3, #4]
    4200:	e03c      	b.n	427c <prvCopyDataToQueue+0xa8>
    4202:	687b      	ldr	r3, [r7, #4]
    4204:	2b00      	cmp	r3, #0
    4206:	d11a      	bne.n	423e <prvCopyDataToQueue+0x6a>
    4208:	68fb      	ldr	r3, [r7, #12]
    420a:	689a      	ldr	r2, [r3, #8]
    420c:	68fb      	ldr	r3, [r7, #12]
    420e:	6c1b      	ldr	r3, [r3, #64]	; 0x40
    4210:	4610      	mov	r0, r2
    4212:	68b9      	ldr	r1, [r7, #8]
    4214:	461a      	mov	r2, r3
    4216:	f001 fecb 	bl	5fb0 <memcpy>
    421a:	68fb      	ldr	r3, [r7, #12]
    421c:	689a      	ldr	r2, [r3, #8]
    421e:	68fb      	ldr	r3, [r7, #12]
    4220:	6c1b      	ldr	r3, [r3, #64]	; 0x40
    4222:	441a      	add	r2, r3
    4224:	68fb      	ldr	r3, [r7, #12]
    4226:	609a      	str	r2, [r3, #8]
    4228:	68fb      	ldr	r3, [r7, #12]
    422a:	689a      	ldr	r2, [r3, #8]
    422c:	68fb      	ldr	r3, [r7, #12]
    422e:	685b      	ldr	r3, [r3, #4]
    4230:	429a      	cmp	r2, r3
    4232:	d323      	bcc.n	427c <prvCopyDataToQueue+0xa8>
    4234:	68fb      	ldr	r3, [r7, #12]
    4236:	681a      	ldr	r2, [r3, #0]
    4238:	68fb      	ldr	r3, [r7, #12]
    423a:	609a      	str	r2, [r3, #8]
    423c:	e01e      	b.n	427c <prvCopyDataToQueue+0xa8>
    423e:	68fb      	ldr	r3, [r7, #12]
    4240:	68da      	ldr	r2, [r3, #12]
    4242:	68fb      	ldr	r3, [r7, #12]
    4244:	6c1b      	ldr	r3, [r3, #64]	; 0x40
    4246:	4610      	mov	r0, r2
    4248:	68b9      	ldr	r1, [r7, #8]
    424a:	461a      	mov	r2, r3
    424c:	f001 feb0 	bl	5fb0 <memcpy>
    4250:	68fb      	ldr	r3, [r7, #12]
    4252:	68da      	ldr	r2, [r3, #12]
    4254:	68fb      	ldr	r3, [r7, #12]
    4256:	6c1b      	ldr	r3, [r3, #64]	; 0x40
    4258:	425b      	negs	r3, r3
    425a:	441a      	add	r2, r3
    425c:	68fb      	ldr	r3, [r7, #12]
    425e:	60da      	str	r2, [r3, #12]
    4260:	68fb      	ldr	r3, [r7, #12]
    4262:	68da      	ldr	r2, [r3, #12]
    4264:	68fb      	ldr	r3, [r7, #12]
    4266:	681b      	ldr	r3, [r3, #0]
    4268:	429a      	cmp	r2, r3
    426a:	d207      	bcs.n	427c <prvCopyDataToQueue+0xa8>
    426c:	68fb      	ldr	r3, [r7, #12]
    426e:	685a      	ldr	r2, [r3, #4]
    4270:	68fb      	ldr	r3, [r7, #12]
    4272:	6c1b      	ldr	r3, [r3, #64]	; 0x40
    4274:	425b      	negs	r3, r3
    4276:	441a      	add	r2, r3
    4278:	68fb      	ldr	r3, [r7, #12]
    427a:	60da      	str	r2, [r3, #12]
    427c:	68fb      	ldr	r3, [r7, #12]
    427e:	6b9b      	ldr	r3, [r3, #56]	; 0x38
    4280:	1c5a      	adds	r2, r3, #1
    4282:	68fb      	ldr	r3, [r7, #12]
    4284:	639a      	str	r2, [r3, #56]	; 0x38
    4286:	3710      	adds	r7, #16
    4288:	46bd      	mov	sp, r7
    428a:	bd80      	pop	{r7, pc}

0000428c <prvCopyDataFromQueue>:
    428c:	b580      	push	{r7, lr}
    428e:	b082      	sub	sp, #8
    4290:	af00      	add	r7, sp, #0
    4292:	6078      	str	r0, [r7, #4]
    4294:	6039      	str	r1, [r7, #0]
    4296:	687b      	ldr	r3, [r7, #4]
    4298:	681b      	ldr	r3, [r3, #0]
    429a:	2b00      	cmp	r3, #0
    429c:	d019      	beq.n	42d2 <prvCopyDataFromQueue+0x46>
    429e:	687b      	ldr	r3, [r7, #4]
    42a0:	68da      	ldr	r2, [r3, #12]
    42a2:	687b      	ldr	r3, [r7, #4]
    42a4:	6c1b      	ldr	r3, [r3, #64]	; 0x40
    42a6:	441a      	add	r2, r3
    42a8:	687b      	ldr	r3, [r7, #4]
    42aa:	60da      	str	r2, [r3, #12]
    42ac:	687b      	ldr	r3, [r7, #4]
    42ae:	68da      	ldr	r2, [r3, #12]
    42b0:	687b      	ldr	r3, [r7, #4]
    42b2:	685b      	ldr	r3, [r3, #4]
    42b4:	429a      	cmp	r2, r3
    42b6:	d303      	bcc.n	42c0 <prvCopyDataFromQueue+0x34>
    42b8:	687b      	ldr	r3, [r7, #4]
    42ba:	681a      	ldr	r2, [r3, #0]
    42bc:	687b      	ldr	r3, [r7, #4]
    42be:	60da      	str	r2, [r3, #12]
    42c0:	687b      	ldr	r3, [r7, #4]
    42c2:	68da      	ldr	r2, [r3, #12]
    42c4:	687b      	ldr	r3, [r7, #4]
    42c6:	6c1b      	ldr	r3, [r3, #64]	; 0x40
    42c8:	6838      	ldr	r0, [r7, #0]
    42ca:	4611      	mov	r1, r2
    42cc:	461a      	mov	r2, r3
    42ce:	f001 fe6f 	bl	5fb0 <memcpy>
    42d2:	3708      	adds	r7, #8
    42d4:	46bd      	mov	sp, r7
    42d6:	bd80      	pop	{r7, pc}

000042d8 <prvUnlockQueue>:
    42d8:	b580      	push	{r7, lr}
    42da:	b082      	sub	sp, #8
    42dc:	af00      	add	r7, sp, #0
    42de:	6078      	str	r0, [r7, #4]
    42e0:	f001 fa3a 	bl	5758 <vPortEnterCritical>
    42e4:	e014      	b.n	4310 <prvUnlockQueue+0x38>
    42e6:	687b      	ldr	r3, [r7, #4]
    42e8:	6a5b      	ldr	r3, [r3, #36]	; 0x24
    42ea:	2b00      	cmp	r3, #0
    42ec:	d00f      	beq.n	430e <prvUnlockQueue+0x36>
    42ee:	687b      	ldr	r3, [r7, #4]
    42f0:	3324      	adds	r3, #36	; 0x24
    42f2:	4618      	mov	r0, r3
    42f4:	f000 fea6 	bl	5044 <xTaskRemoveFromEventList>
    42f8:	4603      	mov	r3, r0
    42fa:	2b00      	cmp	r3, #0
    42fc:	d001      	beq.n	4302 <prvUnlockQueue+0x2a>
    42fe:	f000 ff5d 	bl	51bc <vTaskMissedYield>
    4302:	687b      	ldr	r3, [r7, #4]
    4304:	6c9b      	ldr	r3, [r3, #72]	; 0x48
    4306:	1e5a      	subs	r2, r3, #1
    4308:	687b      	ldr	r3, [r7, #4]
    430a:	649a      	str	r2, [r3, #72]	; 0x48
    430c:	e000      	b.n	4310 <prvUnlockQueue+0x38>
    430e:	e003      	b.n	4318 <prvUnlockQueue+0x40>
    4310:	687b      	ldr	r3, [r7, #4]
    4312:	6c9b      	ldr	r3, [r3, #72]	; 0x48
    4314:	2b00      	cmp	r3, #0
    4316:	dce6      	bgt.n	42e6 <prvUnlockQueue+0xe>
    4318:	687b      	ldr	r3, [r7, #4]
    431a:	f04f 32ff 	mov.w	r2, #4294967295
    431e:	649a      	str	r2, [r3, #72]	; 0x48
    4320:	f001 fa30 	bl	5784 <vPortExitCritical>
    4324:	f001 fa18 	bl	5758 <vPortEnterCritical>
    4328:	e014      	b.n	4354 <prvUnlockQueue+0x7c>
    432a:	687b      	ldr	r3, [r7, #4]
    432c:	691b      	ldr	r3, [r3, #16]
    432e:	2b00      	cmp	r3, #0
    4330:	d00f      	beq.n	4352 <prvUnlockQueue+0x7a>
    4332:	687b      	ldr	r3, [r7, #4]
    4334:	3310      	adds	r3, #16
    4336:	4618      	mov	r0, r3
    4338:	f000 fe84 	bl	5044 <xTaskRemoveFromEventList>
    433c:	4603      	mov	r3, r0
    433e:	2b00      	cmp	r3, #0
    4340:	d001      	beq.n	4346 <prvUnlockQueue+0x6e>
    4342:	f000 ff3b 	bl	51bc <vTaskMissedYield>
    4346:	687b      	ldr	r3, [r7, #4]
    4348:	6c5b      	ldr	r3, [r3, #68]	; 0x44
    434a:	1e5a      	subs	r2, r3, #1
    434c:	687b      	ldr	r3, [r7, #4]
    434e:	645a      	str	r2, [r3, #68]	; 0x44
    4350:	e000      	b.n	4354 <prvUnlockQueue+0x7c>
    4352:	e003      	b.n	435c <prvUnlockQueue+0x84>
    4354:	687b      	ldr	r3, [r7, #4]
    4356:	6c5b      	ldr	r3, [r3, #68]	; 0x44
    4358:	2b00      	cmp	r3, #0
    435a:	dce6      	bgt.n	432a <prvUnlockQueue+0x52>
    435c:	687b      	ldr	r3, [r7, #4]
    435e:	f04f 32ff 	mov.w	r2, #4294967295
    4362:	645a      	str	r2, [r3, #68]	; 0x44
    4364:	f001 fa0e 	bl	5784 <vPortExitCritical>
    4368:	3708      	adds	r7, #8
    436a:	46bd      	mov	sp, r7
    436c:	bd80      	pop	{r7, pc}
    436e:	bf00      	nop

00004370 <prvIsQueueEmpty>:
    4370:	b580      	push	{r7, lr}
    4372:	b084      	sub	sp, #16
    4374:	af00      	add	r7, sp, #0
    4376:	6078      	str	r0, [r7, #4]
    4378:	f001 f9ee 	bl	5758 <vPortEnterCritical>
    437c:	687b      	ldr	r3, [r7, #4]
    437e:	6b9b      	ldr	r3, [r3, #56]	; 0x38
    4380:	2b00      	cmp	r3, #0
    4382:	bf14      	ite	ne
    4384:	2300      	movne	r3, #0
    4386:	2301      	moveq	r3, #1
    4388:	b2db      	uxtb	r3, r3
    438a:	60fb      	str	r3, [r7, #12]
    438c:	f001 f9fa 	bl	5784 <vPortExitCritical>
    4390:	68fb      	ldr	r3, [r7, #12]
    4392:	4618      	mov	r0, r3
    4394:	3710      	adds	r7, #16
    4396:	46bd      	mov	sp, r7
    4398:	bd80      	pop	{r7, pc}
    439a:	bf00      	nop

0000439c <xQueueIsQueueEmptyFromISR>:
    439c:	b480      	push	{r7}
    439e:	b085      	sub	sp, #20
    43a0:	af00      	add	r7, sp, #0
    43a2:	6078      	str	r0, [r7, #4]
    43a4:	687b      	ldr	r3, [r7, #4]
    43a6:	6b9b      	ldr	r3, [r3, #56]	; 0x38
    43a8:	2b00      	cmp	r3, #0
    43aa:	bf14      	ite	ne
    43ac:	2300      	movne	r3, #0
    43ae:	2301      	moveq	r3, #1
    43b0:	b2db      	uxtb	r3, r3
    43b2:	60fb      	str	r3, [r7, #12]
    43b4:	68fb      	ldr	r3, [r7, #12]
    43b6:	4618      	mov	r0, r3
    43b8:	3714      	adds	r7, #20
    43ba:	46bd      	mov	sp, r7
    43bc:	f85d 7b04 	ldr.w	r7, [sp], #4
    43c0:	4770      	bx	lr
    43c2:	bf00      	nop

000043c4 <prvIsQueueFull>:
    43c4:	b580      	push	{r7, lr}
    43c6:	b084      	sub	sp, #16
    43c8:	af00      	add	r7, sp, #0
    43ca:	6078      	str	r0, [r7, #4]
    43cc:	f001 f9c4 	bl	5758 <vPortEnterCritical>
    43d0:	687b      	ldr	r3, [r7, #4]
    43d2:	6b9a      	ldr	r2, [r3, #56]	; 0x38
    43d4:	687b      	ldr	r3, [r7, #4]
    43d6:	6bdb      	ldr	r3, [r3, #60]	; 0x3c
    43d8:	429a      	cmp	r2, r3
    43da:	bf14      	ite	ne
    43dc:	2300      	movne	r3, #0
    43de:	2301      	moveq	r3, #1
    43e0:	b2db      	uxtb	r3, r3
    43e2:	60fb      	str	r3, [r7, #12]
    43e4:	f001 f9ce 	bl	5784 <vPortExitCritical>
    43e8:	68fb      	ldr	r3, [r7, #12]
    43ea:	4618      	mov	r0, r3
    43ec:	3710      	adds	r7, #16
    43ee:	46bd      	mov	sp, r7
    43f0:	bd80      	pop	{r7, pc}
    43f2:	bf00      	nop

000043f4 <xQueueIsQueueFullFromISR>:
    43f4:	b480      	push	{r7}
    43f6:	b085      	sub	sp, #20
    43f8:	af00      	add	r7, sp, #0
    43fa:	6078      	str	r0, [r7, #4]
    43fc:	687b      	ldr	r3, [r7, #4]
    43fe:	6b9a      	ldr	r2, [r3, #56]	; 0x38
    4400:	687b      	ldr	r3, [r7, #4]
    4402:	6bdb      	ldr	r3, [r3, #60]	; 0x3c
    4404:	429a      	cmp	r2, r3
    4406:	bf14      	ite	ne
    4408:	2300      	movne	r3, #0
    440a:	2301      	moveq	r3, #1
    440c:	b2db      	uxtb	r3, r3
    440e:	60fb      	str	r3, [r7, #12]
    4410:	68fb      	ldr	r3, [r7, #12]
    4412:	4618      	mov	r0, r3
    4414:	3714      	adds	r7, #20
    4416:	46bd      	mov	sp, r7
    4418:	f85d 7b04 	ldr.w	r7, [sp], #4
    441c:	4770      	bx	lr
    441e:	bf00      	nop

00004420 <xTaskGenericCreate>:
    4420:	b580      	push	{r7, lr}
    4422:	b08a      	sub	sp, #40	; 0x28
    4424:	af02      	add	r7, sp, #8
    4426:	60f8      	str	r0, [r7, #12]
    4428:	60b9      	str	r1, [r7, #8]
    442a:	603b      	str	r3, [r7, #0]
    442c:	4613      	mov	r3, r2
    442e:	80fb      	strh	r3, [r7, #6]
    4430:	88fb      	ldrh	r3, [r7, #6]
    4432:	4618      	mov	r0, r3
    4434:	6b39      	ldr	r1, [r7, #48]	; 0x30
    4436:	f000 ffe5 	bl	5404 <prvAllocateTCBAndStack>
    443a:	61b8      	str	r0, [r7, #24]
    443c:	69bb      	ldr	r3, [r7, #24]
    443e:	2b00      	cmp	r3, #0
    4440:	f000 80a1 	beq.w	4586 <xTaskGenericCreate+0x166>
    4444:	69bb      	ldr	r3, [r7, #24]
    4446:	6b1a      	ldr	r2, [r3, #48]	; 0x30
    4448:	88fb      	ldrh	r3, [r7, #6]
    444a:	f103 4380 	add.w	r3, r3, #1073741824	; 0x40000000
    444e:	3b01      	subs	r3, #1
    4450:	009b      	lsls	r3, r3, #2
    4452:	4413      	add	r3, r2
    4454:	617b      	str	r3, [r7, #20]
    4456:	697b      	ldr	r3, [r7, #20]
    4458:	f023 0307 	bic.w	r3, r3, #7
    445c:	617b      	str	r3, [r7, #20]
    445e:	88fb      	ldrh	r3, [r7, #6]
    4460:	9300      	str	r3, [sp, #0]
    4462:	69b8      	ldr	r0, [r7, #24]
    4464:	68b9      	ldr	r1, [r7, #8]
    4466:	6aba      	ldr	r2, [r7, #40]	; 0x28
    4468:	6b7b      	ldr	r3, [r7, #52]	; 0x34
    446a:	f000 febd 	bl	51e8 <prvInitialiseTCBVariables>
    446e:	6978      	ldr	r0, [r7, #20]
    4470:	68f9      	ldr	r1, [r7, #12]
    4472:	683a      	ldr	r2, [r7, #0]
    4474:	f001 f8f2 	bl	565c <pxPortInitialiseStack>
    4478:	4602      	mov	r2, r0
    447a:	69bb      	ldr	r3, [r7, #24]
    447c:	601a      	str	r2, [r3, #0]
    447e:	6afb      	ldr	r3, [r7, #44]	; 0x2c
    4480:	2b00      	cmp	r3, #0
    4482:	d002      	beq.n	448a <xTaskGenericCreate+0x6a>
    4484:	6afb      	ldr	r3, [r7, #44]	; 0x2c
    4486:	69ba      	ldr	r2, [r7, #24]
    4488:	601a      	str	r2, [r3, #0]
    448a:	f001 f965 	bl	5758 <vPortEnterCritical>
    448e:	f240 23f0 	movw	r3, #752	; 0x2f0
    4492:	f2c2 0300 	movt	r3, #8192	; 0x2000
    4496:	681b      	ldr	r3, [r3, #0]
    4498:	1c5a      	adds	r2, r3, #1
    449a:	f240 23f0 	movw	r3, #752	; 0x2f0
    449e:	f2c2 0300 	movt	r3, #8192	; 0x2000
    44a2:	601a      	str	r2, [r3, #0]
    44a4:	f240 03ec 	movw	r3, #236	; 0xec
    44a8:	f2c2 0300 	movt	r3, #8192	; 0x2000
    44ac:	681b      	ldr	r3, [r3, #0]
    44ae:	2b00      	cmp	r3, #0
    44b0:	d10f      	bne.n	44d2 <xTaskGenericCreate+0xb2>
    44b2:	f240 03ec 	movw	r3, #236	; 0xec
    44b6:	f2c2 0300 	movt	r3, #8192	; 0x2000
    44ba:	69ba      	ldr	r2, [r7, #24]
    44bc:	601a      	str	r2, [r3, #0]
    44be:	f240 23f0 	movw	r3, #752	; 0x2f0
    44c2:	f2c2 0300 	movt	r3, #8192	; 0x2000
    44c6:	681b      	ldr	r3, [r3, #0]
    44c8:	2b01      	cmp	r3, #1
    44ca:	d118      	bne.n	44fe <xTaskGenericCreate+0xde>
    44cc:	f000 fec2 	bl	5254 <prvInitialiseTaskLists>
    44d0:	e015      	b.n	44fe <xTaskGenericCreate+0xde>
    44d2:	f240 3300 	movw	r3, #768	; 0x300
    44d6:	f2c2 0300 	movt	r3, #8192	; 0x2000
    44da:	681b      	ldr	r3, [r3, #0]
    44dc:	2b00      	cmp	r3, #0
    44de:	d10e      	bne.n	44fe <xTaskGenericCreate+0xde>
    44e0:	f240 03ec 	movw	r3, #236	; 0xec
    44e4:	f2c2 0300 	movt	r3, #8192	; 0x2000
    44e8:	681b      	ldr	r3, [r3, #0]
    44ea:	6ada      	ldr	r2, [r3, #44]	; 0x2c
    44ec:	6abb      	ldr	r3, [r7, #40]	; 0x28
    44ee:	429a      	cmp	r2, r3
    44f0:	d805      	bhi.n	44fe <xTaskGenericCreate+0xde>
    44f2:	f240 03ec 	movw	r3, #236	; 0xec
    44f6:	f2c2 0300 	movt	r3, #8192	; 0x2000
    44fa:	69ba      	ldr	r2, [r7, #24]
    44fc:	601a      	str	r2, [r3, #0]
    44fe:	69bb      	ldr	r3, [r7, #24]
    4500:	6ada      	ldr	r2, [r3, #44]	; 0x2c
    4502:	f240 23f8 	movw	r3, #760	; 0x2f8
    4506:	f2c2 0300 	movt	r3, #8192	; 0x2000
    450a:	681b      	ldr	r3, [r3, #0]
    450c:	429a      	cmp	r2, r3
    450e:	d906      	bls.n	451e <xTaskGenericCreate+0xfe>
    4510:	69bb      	ldr	r3, [r7, #24]
    4512:	6ada      	ldr	r2, [r3, #44]	; 0x2c
    4514:	f240 23f8 	movw	r3, #760	; 0x2f8
    4518:	f2c2 0300 	movt	r3, #8192	; 0x2000
    451c:	601a      	str	r2, [r3, #0]
    451e:	f240 3314 	movw	r3, #788	; 0x314
    4522:	f2c2 0300 	movt	r3, #8192	; 0x2000
    4526:	681b      	ldr	r3, [r3, #0]
    4528:	1c5a      	adds	r2, r3, #1
    452a:	f240 3314 	movw	r3, #788	; 0x314
    452e:	f2c2 0300 	movt	r3, #8192	; 0x2000
    4532:	601a      	str	r2, [r3, #0]
    4534:	69bb      	ldr	r3, [r7, #24]
    4536:	6ada      	ldr	r2, [r3, #44]	; 0x2c
    4538:	f240 23fc 	movw	r3, #764	; 0x2fc
    453c:	f2c2 0300 	movt	r3, #8192	; 0x2000
    4540:	681b      	ldr	r3, [r3, #0]
    4542:	429a      	cmp	r2, r3
    4544:	d906      	bls.n	4554 <xTaskGenericCreate+0x134>
    4546:	69bb      	ldr	r3, [r7, #24]
    4548:	6ada      	ldr	r2, [r3, #44]	; 0x2c
    454a:	f240 23fc 	movw	r3, #764	; 0x2fc
    454e:	f2c2 0300 	movt	r3, #8192	; 0x2000
    4552:	601a      	str	r2, [r3, #0]
    4554:	69bb      	ldr	r3, [r7, #24]
    4556:	6ada      	ldr	r2, [r3, #44]	; 0x2c
    4558:	4613      	mov	r3, r2
    455a:	009b      	lsls	r3, r3, #2
    455c:	4413      	add	r3, r2
    455e:	009b      	lsls	r3, r3, #2
    4560:	f240 02f0 	movw	r2, #240	; 0xf0
    4564:	f2c2 0200 	movt	r2, #8192	; 0x2000
    4568:	441a      	add	r2, r3
    456a:	69bb      	ldr	r3, [r7, #24]
    456c:	3304      	adds	r3, #4
    456e:	4610      	mov	r0, r2
    4570:	4619      	mov	r1, r3
    4572:	f7ff fadf 	bl	3b34 <vListInsertEnd>
    4576:	2301      	movs	r3, #1
    4578:	61fb      	str	r3, [r7, #28]
    457a:	69b8      	ldr	r0, [r7, #24]
    457c:	f001 fcb4 	bl	5ee8 <myTraceCreate>
    4580:	f001 f900 	bl	5784 <vPortExitCritical>
    4584:	e002      	b.n	458c <xTaskGenericCreate+0x16c>
    4586:	f04f 33ff 	mov.w	r3, #4294967295
    458a:	61fb      	str	r3, [r7, #28]
    458c:	69fb      	ldr	r3, [r7, #28]
    458e:	2b01      	cmp	r3, #1
    4590:	d111      	bne.n	45b6 <xTaskGenericCreate+0x196>
    4592:	f240 3300 	movw	r3, #768	; 0x300
    4596:	f2c2 0300 	movt	r3, #8192	; 0x2000
    459a:	681b      	ldr	r3, [r3, #0]
    459c:	2b00      	cmp	r3, #0
    459e:	d00a      	beq.n	45b6 <xTaskGenericCreate+0x196>
    45a0:	f240 03ec 	movw	r3, #236	; 0xec
    45a4:	f2c2 0300 	movt	r3, #8192	; 0x2000
    45a8:	681b      	ldr	r3, [r3, #0]
    45aa:	6ada      	ldr	r2, [r3, #44]	; 0x2c
    45ac:	6abb      	ldr	r3, [r7, #40]	; 0x28
    45ae:	429a      	cmp	r2, r3
    45b0:	d201      	bcs.n	45b6 <xTaskGenericCreate+0x196>
    45b2:	f001 f8c3 	bl	573c <vPortYieldFromISR>
    45b6:	69fb      	ldr	r3, [r7, #28]
    45b8:	4618      	mov	r0, r3
    45ba:	3720      	adds	r7, #32
    45bc:	46bd      	mov	sp, r7
    45be:	bd80      	pop	{r7, pc}

000045c0 <vTaskDelete>:
    45c0:	b580      	push	{r7, lr}
    45c2:	b084      	sub	sp, #16
    45c4:	af00      	add	r7, sp, #0
    45c6:	6078      	str	r0, [r7, #4]
    45c8:	f001 f8c6 	bl	5758 <vPortEnterCritical>
    45cc:	f240 03ec 	movw	r3, #236	; 0xec
    45d0:	f2c2 0300 	movt	r3, #8192	; 0x2000
    45d4:	681b      	ldr	r3, [r3, #0]
    45d6:	687a      	ldr	r2, [r7, #4]
    45d8:	429a      	cmp	r2, r3
    45da:	d101      	bne.n	45e0 <vTaskDelete+0x20>
    45dc:	2300      	movs	r3, #0
    45de:	607b      	str	r3, [r7, #4]
    45e0:	687b      	ldr	r3, [r7, #4]
    45e2:	2b00      	cmp	r3, #0
    45e4:	d105      	bne.n	45f2 <vTaskDelete+0x32>
    45e6:	f240 03ec 	movw	r3, #236	; 0xec
    45ea:	f2c2 0300 	movt	r3, #8192	; 0x2000
    45ee:	681b      	ldr	r3, [r3, #0]
    45f0:	e000      	b.n	45f4 <vTaskDelete+0x34>
    45f2:	687b      	ldr	r3, [r7, #4]
    45f4:	60fb      	str	r3, [r7, #12]
    45f6:	68fb      	ldr	r3, [r7, #12]
    45f8:	3304      	adds	r3, #4
    45fa:	4618      	mov	r0, r3
    45fc:	f7ff fafa 	bl	3bf4 <vListRemove>
    4600:	68fb      	ldr	r3, [r7, #12]
    4602:	6a9b      	ldr	r3, [r3, #40]	; 0x28
    4604:	2b00      	cmp	r3, #0
    4606:	d004      	beq.n	4612 <vTaskDelete+0x52>
    4608:	68fb      	ldr	r3, [r7, #12]
    460a:	3318      	adds	r3, #24
    460c:	4618      	mov	r0, r3
    460e:	f7ff faf1 	bl	3bf4 <vListRemove>
    4612:	68fb      	ldr	r3, [r7, #12]
    4614:	3304      	adds	r3, #4
    4616:	f240 20c4 	movw	r0, #708	; 0x2c4
    461a:	f2c2 0000 	movt	r0, #8192	; 0x2000
    461e:	4619      	mov	r1, r3
    4620:	f7ff fa88 	bl	3b34 <vListInsertEnd>
    4624:	f240 23d8 	movw	r3, #728	; 0x2d8
    4628:	f2c2 0300 	movt	r3, #8192	; 0x2000
    462c:	681b      	ldr	r3, [r3, #0]
    462e:	1c5a      	adds	r2, r3, #1
    4630:	f240 23d8 	movw	r3, #728	; 0x2d8
    4634:	f2c2 0300 	movt	r3, #8192	; 0x2000
    4638:	601a      	str	r2, [r3, #0]
    463a:	f240 3314 	movw	r3, #788	; 0x314
    463e:	f2c2 0300 	movt	r3, #8192	; 0x2000
    4642:	681b      	ldr	r3, [r3, #0]
    4644:	1c5a      	adds	r2, r3, #1
    4646:	f240 3314 	movw	r3, #788	; 0x314
    464a:	f2c2 0300 	movt	r3, #8192	; 0x2000
    464e:	601a      	str	r2, [r3, #0]
    4650:	f001 f898 	bl	5784 <vPortExitCritical>
    4654:	f240 3300 	movw	r3, #768	; 0x300
    4658:	f2c2 0300 	movt	r3, #8192	; 0x2000
    465c:	681b      	ldr	r3, [r3, #0]
    465e:	2b00      	cmp	r3, #0
    4660:	d004      	beq.n	466c <vTaskDelete+0xac>
    4662:	687b      	ldr	r3, [r7, #4]
    4664:	2b00      	cmp	r3, #0
    4666:	d101      	bne.n	466c <vTaskDelete+0xac>
    4668:	f001 f868 	bl	573c <vPortYieldFromISR>
    466c:	3710      	adds	r7, #16
    466e:	46bd      	mov	sp, r7
    4670:	bd80      	pop	{r7, pc}
    4672:	bf00      	nop

00004674 <vTaskDelayUntil>:
    4674:	b580      	push	{r7, lr}
    4676:	b086      	sub	sp, #24
    4678:	af00      	add	r7, sp, #0
    467a:	6078      	str	r0, [r7, #4]
    467c:	6039      	str	r1, [r7, #0]
    467e:	2300      	movs	r3, #0
    4680:	617b      	str	r3, [r7, #20]
    4682:	f000 fa8b 	bl	4b9c <vTaskSuspendAll>
    4686:	687b      	ldr	r3, [r7, #4]
    4688:	681a      	ldr	r2, [r3, #0]
    468a:	683b      	ldr	r3, [r7, #0]
    468c:	4413      	add	r3, r2
    468e:	613b      	str	r3, [r7, #16]
    4690:	687b      	ldr	r3, [r7, #4]
    4692:	681a      	ldr	r2, [r3, #0]
    4694:	f240 23f4 	movw	r3, #756	; 0x2f4
    4698:	f2c2 0300 	movt	r3, #8192	; 0x2000
    469c:	681b      	ldr	r3, [r3, #0]
    469e:	429a      	cmp	r2, r3
    46a0:	d90f      	bls.n	46c2 <vTaskDelayUntil+0x4e>
    46a2:	687b      	ldr	r3, [r7, #4]
    46a4:	681a      	ldr	r2, [r3, #0]
    46a6:	693b      	ldr	r3, [r7, #16]
    46a8:	429a      	cmp	r2, r3
    46aa:	d919      	bls.n	46e0 <vTaskDelayUntil+0x6c>
    46ac:	f240 23f4 	movw	r3, #756	; 0x2f4
    46b0:	f2c2 0300 	movt	r3, #8192	; 0x2000
    46b4:	681b      	ldr	r3, [r3, #0]
    46b6:	693a      	ldr	r2, [r7, #16]
    46b8:	429a      	cmp	r2, r3
    46ba:	d911      	bls.n	46e0 <vTaskDelayUntil+0x6c>
    46bc:	2301      	movs	r3, #1
    46be:	617b      	str	r3, [r7, #20]
    46c0:	e00e      	b.n	46e0 <vTaskDelayUntil+0x6c>
    46c2:	687b      	ldr	r3, [r7, #4]
    46c4:	681a      	ldr	r2, [r3, #0]
    46c6:	693b      	ldr	r3, [r7, #16]
    46c8:	429a      	cmp	r2, r3
    46ca:	d807      	bhi.n	46dc <vTaskDelayUntil+0x68>
    46cc:	f240 23f4 	movw	r3, #756	; 0x2f4
    46d0:	f2c2 0300 	movt	r3, #8192	; 0x2000
    46d4:	681b      	ldr	r3, [r3, #0]
    46d6:	693a      	ldr	r2, [r7, #16]
    46d8:	429a      	cmp	r2, r3
    46da:	d901      	bls.n	46e0 <vTaskDelayUntil+0x6c>
    46dc:	2301      	movs	r3, #1
    46de:	617b      	str	r3, [r7, #20]
    46e0:	687b      	ldr	r3, [r7, #4]
    46e2:	693a      	ldr	r2, [r7, #16]
    46e4:	601a      	str	r2, [r3, #0]
    46e6:	697b      	ldr	r3, [r7, #20]
    46e8:	2b00      	cmp	r3, #0
    46ea:	d00b      	beq.n	4704 <vTaskDelayUntil+0x90>
    46ec:	f240 03ec 	movw	r3, #236	; 0xec
    46f0:	f2c2 0300 	movt	r3, #8192	; 0x2000
    46f4:	681b      	ldr	r3, [r3, #0]
    46f6:	3304      	adds	r3, #4
    46f8:	4618      	mov	r0, r3
    46fa:	f7ff fa7b 	bl	3bf4 <vListRemove>
    46fe:	6938      	ldr	r0, [r7, #16]
    4700:	f000 fe3c 	bl	537c <prvAddCurrentTaskToDelayedList>
    4704:	f000 fa5c 	bl	4bc0 <xTaskResumeAll>
    4708:	60f8      	str	r0, [r7, #12]
    470a:	68fb      	ldr	r3, [r7, #12]
    470c:	2b00      	cmp	r3, #0
    470e:	d101      	bne.n	4714 <vTaskDelayUntil+0xa0>
    4710:	f001 f814 	bl	573c <vPortYieldFromISR>
    4714:	3718      	adds	r7, #24
    4716:	46bd      	mov	sp, r7
    4718:	bd80      	pop	{r7, pc}
    471a:	bf00      	nop

0000471c <vTaskDelay>:
    471c:	b580      	push	{r7, lr}
    471e:	b084      	sub	sp, #16
    4720:	af00      	add	r7, sp, #0
    4722:	6078      	str	r0, [r7, #4]
    4724:	2300      	movs	r3, #0
    4726:	60fb      	str	r3, [r7, #12]
    4728:	687b      	ldr	r3, [r7, #4]
    472a:	2b00      	cmp	r3, #0
    472c:	d018      	beq.n	4760 <vTaskDelay+0x44>
    472e:	f000 fa35 	bl	4b9c <vTaskSuspendAll>
    4732:	f240 23f4 	movw	r3, #756	; 0x2f4
    4736:	f2c2 0300 	movt	r3, #8192	; 0x2000
    473a:	681a      	ldr	r2, [r3, #0]
    473c:	687b      	ldr	r3, [r7, #4]
    473e:	4413      	add	r3, r2
    4740:	60bb      	str	r3, [r7, #8]
    4742:	f240 03ec 	movw	r3, #236	; 0xec
    4746:	f2c2 0300 	movt	r3, #8192	; 0x2000
    474a:	681b      	ldr	r3, [r3, #0]
    474c:	3304      	adds	r3, #4
    474e:	4618      	mov	r0, r3
    4750:	f7ff fa50 	bl	3bf4 <vListRemove>
    4754:	68b8      	ldr	r0, [r7, #8]
    4756:	f000 fe11 	bl	537c <prvAddCurrentTaskToDelayedList>
    475a:	f000 fa31 	bl	4bc0 <xTaskResumeAll>
    475e:	60f8      	str	r0, [r7, #12]
    4760:	68fb      	ldr	r3, [r7, #12]
    4762:	2b00      	cmp	r3, #0
    4764:	d101      	bne.n	476a <vTaskDelay+0x4e>
    4766:	f000 ffe9 	bl	573c <vPortYieldFromISR>
    476a:	3710      	adds	r7, #16
    476c:	46bd      	mov	sp, r7
    476e:	bd80      	pop	{r7, pc}

00004770 <uxTaskPriorityGet>:
    4770:	b580      	push	{r7, lr}
    4772:	b084      	sub	sp, #16
    4774:	af00      	add	r7, sp, #0
    4776:	6078      	str	r0, [r7, #4]
    4778:	f000 ffee 	bl	5758 <vPortEnterCritical>
    477c:	687b      	ldr	r3, [r7, #4]
    477e:	2b00      	cmp	r3, #0
    4780:	d105      	bne.n	478e <uxTaskPriorityGet+0x1e>
    4782:	f240 03ec 	movw	r3, #236	; 0xec
    4786:	f2c2 0300 	movt	r3, #8192	; 0x2000
    478a:	681b      	ldr	r3, [r3, #0]
    478c:	e000      	b.n	4790 <uxTaskPriorityGet+0x20>
    478e:	687b      	ldr	r3, [r7, #4]
    4790:	60fb      	str	r3, [r7, #12]
    4792:	68fb      	ldr	r3, [r7, #12]
    4794:	6adb      	ldr	r3, [r3, #44]	; 0x2c
    4796:	60bb      	str	r3, [r7, #8]
    4798:	f000 fff4 	bl	5784 <vPortExitCritical>
    479c:	68bb      	ldr	r3, [r7, #8]
    479e:	4618      	mov	r0, r3
    47a0:	3710      	adds	r7, #16
    47a2:	46bd      	mov	sp, r7
    47a4:	bd80      	pop	{r7, pc}
    47a6:	bf00      	nop

000047a8 <vTaskPrioritySet>:
    47a8:	b580      	push	{r7, lr}
    47aa:	b086      	sub	sp, #24
    47ac:	af00      	add	r7, sp, #0
    47ae:	6078      	str	r0, [r7, #4]
    47b0:	6039      	str	r1, [r7, #0]
    47b2:	2300      	movs	r3, #0
    47b4:	617b      	str	r3, [r7, #20]
    47b6:	683b      	ldr	r3, [r7, #0]
    47b8:	2b13      	cmp	r3, #19
    47ba:	d901      	bls.n	47c0 <vTaskPrioritySet+0x18>
    47bc:	2313      	movs	r3, #19
    47be:	603b      	str	r3, [r7, #0]
    47c0:	f000 ffca 	bl	5758 <vPortEnterCritical>
    47c4:	f240 03ec 	movw	r3, #236	; 0xec
    47c8:	f2c2 0300 	movt	r3, #8192	; 0x2000
    47cc:	681b      	ldr	r3, [r3, #0]
    47ce:	687a      	ldr	r2, [r7, #4]
    47d0:	429a      	cmp	r2, r3
    47d2:	d101      	bne.n	47d8 <vTaskPrioritySet+0x30>
    47d4:	2300      	movs	r3, #0
    47d6:	607b      	str	r3, [r7, #4]
    47d8:	687b      	ldr	r3, [r7, #4]
    47da:	2b00      	cmp	r3, #0
    47dc:	d105      	bne.n	47ea <vTaskPrioritySet+0x42>
    47de:	f240 03ec 	movw	r3, #236	; 0xec
    47e2:	f2c2 0300 	movt	r3, #8192	; 0x2000
    47e6:	681b      	ldr	r3, [r3, #0]
    47e8:	e000      	b.n	47ec <vTaskPrioritySet+0x44>
    47ea:	687b      	ldr	r3, [r7, #4]
    47ec:	613b      	str	r3, [r7, #16]
    47ee:	693b      	ldr	r3, [r7, #16]
    47f0:	6cdb      	ldr	r3, [r3, #76]	; 0x4c
    47f2:	60fb      	str	r3, [r7, #12]
    47f4:	68fa      	ldr	r2, [r7, #12]
    47f6:	683b      	ldr	r3, [r7, #0]
    47f8:	429a      	cmp	r2, r3
    47fa:	d058      	beq.n	48ae <vTaskPrioritySet+0x106>
    47fc:	683a      	ldr	r2, [r7, #0]
    47fe:	68fb      	ldr	r3, [r7, #12]
    4800:	429a      	cmp	r2, r3
    4802:	d905      	bls.n	4810 <vTaskPrioritySet+0x68>
    4804:	687b      	ldr	r3, [r7, #4]
    4806:	2b00      	cmp	r3, #0
    4808:	d007      	beq.n	481a <vTaskPrioritySet+0x72>
    480a:	2301      	movs	r3, #1
    480c:	617b      	str	r3, [r7, #20]
    480e:	e004      	b.n	481a <vTaskPrioritySet+0x72>
    4810:	687b      	ldr	r3, [r7, #4]
    4812:	2b00      	cmp	r3, #0
    4814:	d101      	bne.n	481a <vTaskPrioritySet+0x72>
    4816:	2301      	movs	r3, #1
    4818:	617b      	str	r3, [r7, #20]
    481a:	693b      	ldr	r3, [r7, #16]
    481c:	6cda      	ldr	r2, [r3, #76]	; 0x4c
    481e:	693b      	ldr	r3, [r7, #16]
    4820:	6adb      	ldr	r3, [r3, #44]	; 0x2c
    4822:	429a      	cmp	r2, r3
    4824:	d102      	bne.n	482c <vTaskPrioritySet+0x84>
    4826:	693b      	ldr	r3, [r7, #16]
    4828:	683a      	ldr	r2, [r7, #0]
    482a:	62da      	str	r2, [r3, #44]	; 0x2c
    482c:	693b      	ldr	r3, [r7, #16]
    482e:	683a      	ldr	r2, [r7, #0]
    4830:	64da      	str	r2, [r3, #76]	; 0x4c
    4832:	683b      	ldr	r3, [r7, #0]
    4834:	f1c3 0214 	rsb	r2, r3, #20
    4838:	693b      	ldr	r3, [r7, #16]
    483a:	619a      	str	r2, [r3, #24]
    483c:	693b      	ldr	r3, [r7, #16]
    483e:	6959      	ldr	r1, [r3, #20]
    4840:	68fa      	ldr	r2, [r7, #12]
    4842:	4613      	mov	r3, r2
    4844:	009b      	lsls	r3, r3, #2
    4846:	4413      	add	r3, r2
    4848:	009b      	lsls	r3, r3, #2
    484a:	f240 02f0 	movw	r2, #240	; 0xf0
    484e:	f2c2 0200 	movt	r2, #8192	; 0x2000
    4852:	4413      	add	r3, r2
    4854:	4299      	cmp	r1, r3
    4856:	d125      	bne.n	48a4 <vTaskPrioritySet+0xfc>
    4858:	693b      	ldr	r3, [r7, #16]
    485a:	3304      	adds	r3, #4
    485c:	4618      	mov	r0, r3
    485e:	f7ff f9c9 	bl	3bf4 <vListRemove>
    4862:	693b      	ldr	r3, [r7, #16]
    4864:	6ada      	ldr	r2, [r3, #44]	; 0x2c
    4866:	f240 23fc 	movw	r3, #764	; 0x2fc
    486a:	f2c2 0300 	movt	r3, #8192	; 0x2000
    486e:	681b      	ldr	r3, [r3, #0]
    4870:	429a      	cmp	r2, r3
    4872:	d906      	bls.n	4882 <vTaskPrioritySet+0xda>
    4874:	693b      	ldr	r3, [r7, #16]
    4876:	6ada      	ldr	r2, [r3, #44]	; 0x2c
    4878:	f240 23fc 	movw	r3, #764	; 0x2fc
    487c:	f2c2 0300 	movt	r3, #8192	; 0x2000
    4880:	601a      	str	r2, [r3, #0]
    4882:	693b      	ldr	r3, [r7, #16]
    4884:	6ada      	ldr	r2, [r3, #44]	; 0x2c
    4886:	4613      	mov	r3, r2
    4888:	009b      	lsls	r3, r3, #2
    488a:	4413      	add	r3, r2
    488c:	009b      	lsls	r3, r3, #2
    488e:	f240 02f0 	movw	r2, #240	; 0xf0
    4892:	f2c2 0200 	movt	r2, #8192	; 0x2000
    4896:	441a      	add	r2, r3
    4898:	693b      	ldr	r3, [r7, #16]
    489a:	3304      	adds	r3, #4
    489c:	4610      	mov	r0, r2
    489e:	4619      	mov	r1, r3
    48a0:	f7ff f948 	bl	3b34 <vListInsertEnd>
    48a4:	697b      	ldr	r3, [r7, #20]
    48a6:	2b01      	cmp	r3, #1
    48a8:	d101      	bne.n	48ae <vTaskPrioritySet+0x106>
    48aa:	f000 ff47 	bl	573c <vPortYieldFromISR>
    48ae:	f000 ff69 	bl	5784 <vPortExitCritical>
    48b2:	3718      	adds	r7, #24
    48b4:	46bd      	mov	sp, r7
    48b6:	bd80      	pop	{r7, pc}

000048b8 <vTaskSuspend>:
    48b8:	b580      	push	{r7, lr}
    48ba:	b084      	sub	sp, #16
    48bc:	af00      	add	r7, sp, #0
    48be:	6078      	str	r0, [r7, #4]
    48c0:	f000 ff4a 	bl	5758 <vPortEnterCritical>
    48c4:	f240 03ec 	movw	r3, #236	; 0xec
    48c8:	f2c2 0300 	movt	r3, #8192	; 0x2000
    48cc:	681b      	ldr	r3, [r3, #0]
    48ce:	687a      	ldr	r2, [r7, #4]
    48d0:	429a      	cmp	r2, r3
    48d2:	d101      	bne.n	48d8 <vTaskSuspend+0x20>
    48d4:	2300      	movs	r3, #0
    48d6:	607b      	str	r3, [r7, #4]
    48d8:	687b      	ldr	r3, [r7, #4]
    48da:	2b00      	cmp	r3, #0
    48dc:	d105      	bne.n	48ea <vTaskSuspend+0x32>
    48de:	f240 03ec 	movw	r3, #236	; 0xec
    48e2:	f2c2 0300 	movt	r3, #8192	; 0x2000
    48e6:	681b      	ldr	r3, [r3, #0]
    48e8:	e000      	b.n	48ec <vTaskSuspend+0x34>
    48ea:	687b      	ldr	r3, [r7, #4]
    48ec:	60fb      	str	r3, [r7, #12]
    48ee:	68fb      	ldr	r3, [r7, #12]
    48f0:	3304      	adds	r3, #4
    48f2:	4618      	mov	r0, r3
    48f4:	f7ff f97e 	bl	3bf4 <vListRemove>
    48f8:	68fb      	ldr	r3, [r7, #12]
    48fa:	6a9b      	ldr	r3, [r3, #40]	; 0x28
    48fc:	2b00      	cmp	r3, #0
    48fe:	d004      	beq.n	490a <vTaskSuspend+0x52>
    4900:	68fb      	ldr	r3, [r7, #12]
    4902:	3318      	adds	r3, #24
    4904:	4618      	mov	r0, r3
    4906:	f7ff f975 	bl	3bf4 <vListRemove>
    490a:	68fb      	ldr	r3, [r7, #12]
    490c:	3304      	adds	r3, #4
    490e:	f240 20dc 	movw	r0, #732	; 0x2dc
    4912:	f2c2 0000 	movt	r0, #8192	; 0x2000
    4916:	4619      	mov	r1, r3
    4918:	f7ff f90c 	bl	3b34 <vListInsertEnd>
    491c:	f000 ff32 	bl	5784 <vPortExitCritical>
    4920:	687b      	ldr	r3, [r7, #4]
    4922:	2b00      	cmp	r3, #0
    4924:	d11e      	bne.n	4964 <vTaskSuspend+0xac>
    4926:	f240 3300 	movw	r3, #768	; 0x300
    492a:	f2c2 0300 	movt	r3, #8192	; 0x2000
    492e:	681b      	ldr	r3, [r3, #0]
    4930:	2b00      	cmp	r3, #0
    4932:	d002      	beq.n	493a <vTaskSuspend+0x82>
    4934:	f000 ff02 	bl	573c <vPortYieldFromISR>
    4938:	e014      	b.n	4964 <vTaskSuspend+0xac>
    493a:	f240 23dc 	movw	r3, #732	; 0x2dc
    493e:	f2c2 0300 	movt	r3, #8192	; 0x2000
    4942:	681a      	ldr	r2, [r3, #0]
    4944:	f240 23f0 	movw	r3, #752	; 0x2f0
    4948:	f2c2 0300 	movt	r3, #8192	; 0x2000
    494c:	681b      	ldr	r3, [r3, #0]
    494e:	429a      	cmp	r2, r3
    4950:	d106      	bne.n	4960 <vTaskSuspend+0xa8>
    4952:	f240 03ec 	movw	r3, #236	; 0xec
    4956:	f2c2 0300 	movt	r3, #8192	; 0x2000
    495a:	2200      	movs	r2, #0
    495c:	601a      	str	r2, [r3, #0]
    495e:	e001      	b.n	4964 <vTaskSuspend+0xac>
    4960:	f000 fadc 	bl	4f1c <vTaskSwitchContext>
    4964:	3710      	adds	r7, #16
    4966:	46bd      	mov	sp, r7
    4968:	bd80      	pop	{r7, pc}
    496a:	bf00      	nop

0000496c <xTaskIsTaskSuspended>:
    496c:	b480      	push	{r7}
    496e:	b085      	sub	sp, #20
    4970:	af00      	add	r7, sp, #0
    4972:	6078      	str	r0, [r7, #4]
    4974:	2300      	movs	r3, #0
    4976:	60fb      	str	r3, [r7, #12]
    4978:	687b      	ldr	r3, [r7, #4]
    497a:	60bb      	str	r3, [r7, #8]
    497c:	68bb      	ldr	r3, [r7, #8]
    497e:	695a      	ldr	r2, [r3, #20]
    4980:	f240 23dc 	movw	r3, #732	; 0x2dc
    4984:	f2c2 0300 	movt	r3, #8192	; 0x2000
    4988:	429a      	cmp	r2, r3
    498a:	d10d      	bne.n	49a8 <xTaskIsTaskSuspended+0x3c>
    498c:	68bb      	ldr	r3, [r7, #8]
    498e:	6a9a      	ldr	r2, [r3, #40]	; 0x28
    4990:	f240 23b0 	movw	r3, #688	; 0x2b0
    4994:	f2c2 0300 	movt	r3, #8192	; 0x2000
    4998:	429a      	cmp	r2, r3
    499a:	d005      	beq.n	49a8 <xTaskIsTaskSuspended+0x3c>
    499c:	68bb      	ldr	r3, [r7, #8]
    499e:	6a9b      	ldr	r3, [r3, #40]	; 0x28
    49a0:	2b00      	cmp	r3, #0
    49a2:	d101      	bne.n	49a8 <xTaskIsTaskSuspended+0x3c>
    49a4:	2301      	movs	r3, #1
    49a6:	60fb      	str	r3, [r7, #12]
    49a8:	68fb      	ldr	r3, [r7, #12]
    49aa:	4618      	mov	r0, r3
    49ac:	3714      	adds	r7, #20
    49ae:	46bd      	mov	sp, r7
    49b0:	f85d 7b04 	ldr.w	r7, [sp], #4
    49b4:	4770      	bx	lr
    49b6:	bf00      	nop

000049b8 <vTaskResume>:
    49b8:	b580      	push	{r7, lr}
    49ba:	b084      	sub	sp, #16
    49bc:	af00      	add	r7, sp, #0
    49be:	6078      	str	r0, [r7, #4]
    49c0:	687b      	ldr	r3, [r7, #4]
    49c2:	60fb      	str	r3, [r7, #12]
    49c4:	68fb      	ldr	r3, [r7, #12]
    49c6:	2b00      	cmp	r3, #0
    49c8:	d043      	beq.n	4a52 <vTaskResume+0x9a>
    49ca:	f240 03ec 	movw	r3, #236	; 0xec
    49ce:	f2c2 0300 	movt	r3, #8192	; 0x2000
    49d2:	681b      	ldr	r3, [r3, #0]
    49d4:	68fa      	ldr	r2, [r7, #12]
    49d6:	429a      	cmp	r2, r3
    49d8:	d03b      	beq.n	4a52 <vTaskResume+0x9a>
    49da:	f000 febd 	bl	5758 <vPortEnterCritical>
    49de:	68f8      	ldr	r0, [r7, #12]
    49e0:	f7ff ffc4 	bl	496c <xTaskIsTaskSuspended>
    49e4:	4603      	mov	r3, r0
    49e6:	2b01      	cmp	r3, #1
    49e8:	d131      	bne.n	4a4e <vTaskResume+0x96>
    49ea:	68fb      	ldr	r3, [r7, #12]
    49ec:	3304      	adds	r3, #4
    49ee:	4618      	mov	r0, r3
    49f0:	f7ff f900 	bl	3bf4 <vListRemove>
    49f4:	68fb      	ldr	r3, [r7, #12]
    49f6:	6ada      	ldr	r2, [r3, #44]	; 0x2c
    49f8:	f240 23fc 	movw	r3, #764	; 0x2fc
    49fc:	f2c2 0300 	movt	r3, #8192	; 0x2000
    4a00:	681b      	ldr	r3, [r3, #0]
    4a02:	429a      	cmp	r2, r3
    4a04:	d906      	bls.n	4a14 <vTaskResume+0x5c>
    4a06:	68fb      	ldr	r3, [r7, #12]
    4a08:	6ada      	ldr	r2, [r3, #44]	; 0x2c
    4a0a:	f240 23fc 	movw	r3, #764	; 0x2fc
    4a0e:	f2c2 0300 	movt	r3, #8192	; 0x2000
    4a12:	601a      	str	r2, [r3, #0]
    4a14:	68fb      	ldr	r3, [r7, #12]
    4a16:	6ada      	ldr	r2, [r3, #44]	; 0x2c
    4a18:	4613      	mov	r3, r2
    4a1a:	009b      	lsls	r3, r3, #2
    4a1c:	4413      	add	r3, r2
    4a1e:	009b      	lsls	r3, r3, #2
    4a20:	f240 02f0 	movw	r2, #240	; 0xf0
    4a24:	f2c2 0200 	movt	r2, #8192	; 0x2000
    4a28:	441a      	add	r2, r3
    4a2a:	68fb      	ldr	r3, [r7, #12]
    4a2c:	3304      	adds	r3, #4
    4a2e:	4610      	mov	r0, r2
    4a30:	4619      	mov	r1, r3
    4a32:	f7ff f87f 	bl	3b34 <vListInsertEnd>
    4a36:	68fb      	ldr	r3, [r7, #12]
    4a38:	6ada      	ldr	r2, [r3, #44]	; 0x2c
    4a3a:	f240 03ec 	movw	r3, #236	; 0xec
    4a3e:	f2c2 0300 	movt	r3, #8192	; 0x2000
    4a42:	681b      	ldr	r3, [r3, #0]
    4a44:	6adb      	ldr	r3, [r3, #44]	; 0x2c
    4a46:	429a      	cmp	r2, r3
    4a48:	d301      	bcc.n	4a4e <vTaskResume+0x96>
    4a4a:	f000 fe77 	bl	573c <vPortYieldFromISR>
    4a4e:	f000 fe99 	bl	5784 <vPortExitCritical>
    4a52:	3710      	adds	r7, #16
    4a54:	46bd      	mov	sp, r7
    4a56:	bd80      	pop	{r7, pc}

00004a58 <xTaskResumeFromISR>:
    4a58:	b580      	push	{r7, lr}
    4a5a:	b086      	sub	sp, #24
    4a5c:	af00      	add	r7, sp, #0
    4a5e:	6078      	str	r0, [r7, #4]
    4a60:	2300      	movs	r3, #0
    4a62:	617b      	str	r3, [r7, #20]
    4a64:	687b      	ldr	r3, [r7, #4]
    4a66:	613b      	str	r3, [r7, #16]
    4a68:	2300      	movs	r3, #0
    4a6a:	60fb      	str	r3, [r7, #12]
    4a6c:	f04f 00bf 	mov.w	r0, #191	; 0xbf
    4a70:	f380 8811 	msr	BASEPRI, r0
    4a74:	6938      	ldr	r0, [r7, #16]
    4a76:	f7ff ff79 	bl	496c <xTaskIsTaskSuspended>
    4a7a:	4603      	mov	r3, r0
    4a7c:	2b01      	cmp	r3, #1
    4a7e:	d144      	bne.n	4b0a <xTaskResumeFromISR+0xb2>
    4a80:	f240 3304 	movw	r3, #772	; 0x304
    4a84:	f2c2 0300 	movt	r3, #8192	; 0x2000
    4a88:	681b      	ldr	r3, [r3, #0]
    4a8a:	2b00      	cmp	r3, #0
    4a8c:	d134      	bne.n	4af8 <xTaskResumeFromISR+0xa0>
    4a8e:	693b      	ldr	r3, [r7, #16]
    4a90:	6ada      	ldr	r2, [r3, #44]	; 0x2c
    4a92:	f240 03ec 	movw	r3, #236	; 0xec
    4a96:	f2c2 0300 	movt	r3, #8192	; 0x2000
    4a9a:	681b      	ldr	r3, [r3, #0]
    4a9c:	6adb      	ldr	r3, [r3, #44]	; 0x2c
    4a9e:	429a      	cmp	r2, r3
    4aa0:	bf34      	ite	cc
    4aa2:	2300      	movcc	r3, #0
    4aa4:	2301      	movcs	r3, #1
    4aa6:	b2db      	uxtb	r3, r3
    4aa8:	617b      	str	r3, [r7, #20]
    4aaa:	693b      	ldr	r3, [r7, #16]
    4aac:	3304      	adds	r3, #4
    4aae:	4618      	mov	r0, r3
    4ab0:	f7ff f8a0 	bl	3bf4 <vListRemove>
    4ab4:	693b      	ldr	r3, [r7, #16]
    4ab6:	6ada      	ldr	r2, [r3, #44]	; 0x2c
    4ab8:	f240 23fc 	movw	r3, #764	; 0x2fc
    4abc:	f2c2 0300 	movt	r3, #8192	; 0x2000
    4ac0:	681b      	ldr	r3, [r3, #0]
    4ac2:	429a      	cmp	r2, r3
    4ac4:	d906      	bls.n	4ad4 <xTaskResumeFromISR+0x7c>
    4ac6:	693b      	ldr	r3, [r7, #16]
    4ac8:	6ada      	ldr	r2, [r3, #44]	; 0x2c
    4aca:	f240 23fc 	movw	r3, #764	; 0x2fc
    4ace:	f2c2 0300 	movt	r3, #8192	; 0x2000
    4ad2:	601a      	str	r2, [r3, #0]
    4ad4:	693b      	ldr	r3, [r7, #16]
    4ad6:	6ada      	ldr	r2, [r3, #44]	; 0x2c
    4ad8:	4613      	mov	r3, r2
    4ada:	009b      	lsls	r3, r3, #2
    4adc:	4413      	add	r3, r2
    4ade:	009b      	lsls	r3, r3, #2
    4ae0:	f240 02f0 	movw	r2, #240	; 0xf0
    4ae4:	f2c2 0200 	movt	r2, #8192	; 0x2000
    4ae8:	441a      	add	r2, r3
    4aea:	693b      	ldr	r3, [r7, #16]
    4aec:	3304      	adds	r3, #4
    4aee:	4610      	mov	r0, r2
    4af0:	4619      	mov	r1, r3
    4af2:	f7ff f81f 	bl	3b34 <vListInsertEnd>
    4af6:	e008      	b.n	4b0a <xTaskResumeFromISR+0xb2>
    4af8:	693b      	ldr	r3, [r7, #16]
    4afa:	3318      	adds	r3, #24
    4afc:	f240 20b0 	movw	r0, #688	; 0x2b0
    4b00:	f2c2 0000 	movt	r0, #8192	; 0x2000
    4b04:	4619      	mov	r1, r3
    4b06:	f7ff f815 	bl	3b34 <vListInsertEnd>
    4b0a:	f04f 0000 	mov.w	r0, #0
    4b0e:	f380 8811 	msr	BASEPRI, r0
    4b12:	697b      	ldr	r3, [r7, #20]
    4b14:	4618      	mov	r0, r3
    4b16:	3718      	adds	r7, #24
    4b18:	46bd      	mov	sp, r7
    4b1a:	bd80      	pop	{r7, pc}

00004b1c <vTaskStartScheduler>:
    4b1c:	b580      	push	{r7, lr}
    4b1e:	b086      	sub	sp, #24
    4b20:	af04      	add	r7, sp, #16
    4b22:	2300      	movs	r3, #0
    4b24:	9300      	str	r3, [sp, #0]
    4b26:	2300      	movs	r3, #0
    4b28:	9301      	str	r3, [sp, #4]
    4b2a:	2300      	movs	r3, #0
    4b2c:	9302      	str	r3, [sp, #8]
    4b2e:	2300      	movs	r3, #0
    4b30:	9303      	str	r3, [sp, #12]
    4b32:	f245 10d5 	movw	r0, #20949	; 0x51d5
    4b36:	f2c0 0000 	movt	r0, #0
    4b3a:	f246 2138 	movw	r1, #25144	; 0x6238
    4b3e:	f2c0 0100 	movt	r1, #0
    4b42:	2280      	movs	r2, #128	; 0x80
    4b44:	2300      	movs	r3, #0
    4b46:	f7ff fc6b 	bl	4420 <xTaskGenericCreate>
    4b4a:	6078      	str	r0, [r7, #4]
    4b4c:	687b      	ldr	r3, [r7, #4]
    4b4e:	2b01      	cmp	r3, #1
    4b50:	d111      	bne.n	4b76 <vTaskStartScheduler+0x5a>
    4b52:	f04f 00bf 	mov.w	r0, #191	; 0xbf
    4b56:	f380 8811 	msr	BASEPRI, r0
    4b5a:	f240 3300 	movw	r3, #768	; 0x300
    4b5e:	f2c2 0300 	movt	r3, #8192	; 0x2000
    4b62:	2201      	movs	r2, #1
    4b64:	601a      	str	r2, [r3, #0]
    4b66:	f240 23f4 	movw	r3, #756	; 0x2f4
    4b6a:	f2c2 0300 	movt	r3, #8192	; 0x2000
    4b6e:	2200      	movs	r2, #0
    4b70:	601a      	str	r2, [r3, #0]
    4b72:	f000 fdb5 	bl	56e0 <xPortStartScheduler>
    4b76:	3708      	adds	r7, #8
    4b78:	46bd      	mov	sp, r7
    4b7a:	bd80      	pop	{r7, pc}

00004b7c <vTaskEndScheduler>:
    4b7c:	b580      	push	{r7, lr}
    4b7e:	af00      	add	r7, sp, #0
    4b80:	f04f 00bf 	mov.w	r0, #191	; 0xbf
    4b84:	f380 8811 	msr	BASEPRI, r0
    4b88:	f240 3300 	movw	r3, #768	; 0x300
    4b8c:	f2c2 0300 	movt	r3, #8192	; 0x2000
    4b90:	2200      	movs	r2, #0
    4b92:	601a      	str	r2, [r3, #0]
    4b94:	f000 fdcc 	bl	5730 <vPortEndScheduler>
    4b98:	bd80      	pop	{r7, pc}
    4b9a:	bf00      	nop

00004b9c <vTaskSuspendAll>:
    4b9c:	b480      	push	{r7}
    4b9e:	af00      	add	r7, sp, #0
    4ba0:	f240 3304 	movw	r3, #772	; 0x304
    4ba4:	f2c2 0300 	movt	r3, #8192	; 0x2000
    4ba8:	681b      	ldr	r3, [r3, #0]
    4baa:	1c5a      	adds	r2, r3, #1
    4bac:	f240 3304 	movw	r3, #772	; 0x304
    4bb0:	f2c2 0300 	movt	r3, #8192	; 0x2000
    4bb4:	601a      	str	r2, [r3, #0]
    4bb6:	46bd      	mov	sp, r7
    4bb8:	f85d 7b04 	ldr.w	r7, [sp], #4
    4bbc:	4770      	bx	lr
    4bbe:	bf00      	nop

00004bc0 <xTaskResumeAll>:
    4bc0:	b590      	push	{r4, r7, lr}
    4bc2:	b083      	sub	sp, #12
    4bc4:	af00      	add	r7, sp, #0
    4bc6:	2300      	movs	r3, #0
    4bc8:	607b      	str	r3, [r7, #4]
    4bca:	f000 fdc5 	bl	5758 <vPortEnterCritical>
    4bce:	f240 3304 	movw	r3, #772	; 0x304
    4bd2:	f2c2 0300 	movt	r3, #8192	; 0x2000
    4bd6:	681b      	ldr	r3, [r3, #0]
    4bd8:	1e5a      	subs	r2, r3, #1
    4bda:	f240 3304 	movw	r3, #772	; 0x304
    4bde:	f2c2 0300 	movt	r3, #8192	; 0x2000
    4be2:	601a      	str	r2, [r3, #0]
    4be4:	f240 3304 	movw	r3, #772	; 0x304
    4be8:	f2c2 0300 	movt	r3, #8192	; 0x2000
    4bec:	681b      	ldr	r3, [r3, #0]
    4bee:	2b00      	cmp	r3, #0
    4bf0:	d177      	bne.n	4ce2 <xTaskResumeAll+0x122>
    4bf2:	f240 23f0 	movw	r3, #752	; 0x2f0
    4bf6:	f2c2 0300 	movt	r3, #8192	; 0x2000
    4bfa:	681b      	ldr	r3, [r3, #0]
    4bfc:	2b00      	cmp	r3, #0
    4bfe:	d070      	beq.n	4ce2 <xTaskResumeAll+0x122>
    4c00:	2300      	movs	r3, #0
    4c02:	603b      	str	r3, [r7, #0]
    4c04:	e036      	b.n	4c74 <xTaskResumeAll+0xb4>
    4c06:	f240 23b0 	movw	r3, #688	; 0x2b0
    4c0a:	f2c2 0300 	movt	r3, #8192	; 0x2000
    4c0e:	68db      	ldr	r3, [r3, #12]
    4c10:	68dc      	ldr	r4, [r3, #12]
    4c12:	f104 0318 	add.w	r3, r4, #24
    4c16:	4618      	mov	r0, r3
    4c18:	f7fe ffec 	bl	3bf4 <vListRemove>
    4c1c:	1d23      	adds	r3, r4, #4
    4c1e:	4618      	mov	r0, r3
    4c20:	f7fe ffe8 	bl	3bf4 <vListRemove>
    4c24:	6ae2      	ldr	r2, [r4, #44]	; 0x2c
    4c26:	f240 23fc 	movw	r3, #764	; 0x2fc
    4c2a:	f2c2 0300 	movt	r3, #8192	; 0x2000
    4c2e:	681b      	ldr	r3, [r3, #0]
    4c30:	429a      	cmp	r2, r3
    4c32:	d905      	bls.n	4c40 <xTaskResumeAll+0x80>
    4c34:	6ae2      	ldr	r2, [r4, #44]	; 0x2c
    4c36:	f240 23fc 	movw	r3, #764	; 0x2fc
    4c3a:	f2c2 0300 	movt	r3, #8192	; 0x2000
    4c3e:	601a      	str	r2, [r3, #0]
    4c40:	6ae2      	ldr	r2, [r4, #44]	; 0x2c
    4c42:	4613      	mov	r3, r2
    4c44:	009b      	lsls	r3, r3, #2
    4c46:	4413      	add	r3, r2
    4c48:	009b      	lsls	r3, r3, #2
    4c4a:	f240 02f0 	movw	r2, #240	; 0xf0
    4c4e:	f2c2 0200 	movt	r2, #8192	; 0x2000
    4c52:	441a      	add	r2, r3
    4c54:	1d23      	adds	r3, r4, #4
    4c56:	4610      	mov	r0, r2
    4c58:	4619      	mov	r1, r3
    4c5a:	f7fe ff6b 	bl	3b34 <vListInsertEnd>
    4c5e:	6ae2      	ldr	r2, [r4, #44]	; 0x2c
    4c60:	f240 03ec 	movw	r3, #236	; 0xec
    4c64:	f2c2 0300 	movt	r3, #8192	; 0x2000
    4c68:	681b      	ldr	r3, [r3, #0]
    4c6a:	6adb      	ldr	r3, [r3, #44]	; 0x2c
    4c6c:	429a      	cmp	r2, r3
    4c6e:	d301      	bcc.n	4c74 <xTaskResumeAll+0xb4>
    4c70:	2301      	movs	r3, #1
    4c72:	603b      	str	r3, [r7, #0]
    4c74:	f240 23b0 	movw	r3, #688	; 0x2b0
    4c78:	f2c2 0300 	movt	r3, #8192	; 0x2000
    4c7c:	681b      	ldr	r3, [r3, #0]
    4c7e:	2b00      	cmp	r3, #0
    4c80:	d1c1      	bne.n	4c06 <xTaskResumeAll+0x46>
    4c82:	f240 3308 	movw	r3, #776	; 0x308
    4c86:	f2c2 0300 	movt	r3, #8192	; 0x2000
    4c8a:	681b      	ldr	r3, [r3, #0]
    4c8c:	2b00      	cmp	r3, #0
    4c8e:	d014      	beq.n	4cba <xTaskResumeAll+0xfa>
    4c90:	e00c      	b.n	4cac <xTaskResumeAll+0xec>
    4c92:	f000 f865 	bl	4d60 <vTaskIncrementTick>
    4c96:	f240 3308 	movw	r3, #776	; 0x308
    4c9a:	f2c2 0300 	movt	r3, #8192	; 0x2000
    4c9e:	681b      	ldr	r3, [r3, #0]
    4ca0:	1e5a      	subs	r2, r3, #1
    4ca2:	f240 3308 	movw	r3, #776	; 0x308
    4ca6:	f2c2 0300 	movt	r3, #8192	; 0x2000
    4caa:	601a      	str	r2, [r3, #0]
    4cac:	f240 3308 	movw	r3, #776	; 0x308
    4cb0:	f2c2 0300 	movt	r3, #8192	; 0x2000
    4cb4:	681b      	ldr	r3, [r3, #0]
    4cb6:	2b00      	cmp	r3, #0
    4cb8:	d1eb      	bne.n	4c92 <xTaskResumeAll+0xd2>
    4cba:	683b      	ldr	r3, [r7, #0]
    4cbc:	2b01      	cmp	r3, #1
    4cbe:	d006      	beq.n	4cce <xTaskResumeAll+0x10e>
    4cc0:	f240 330c 	movw	r3, #780	; 0x30c
    4cc4:	f2c2 0300 	movt	r3, #8192	; 0x2000
    4cc8:	681b      	ldr	r3, [r3, #0]
    4cca:	2b01      	cmp	r3, #1
    4ccc:	d109      	bne.n	4ce2 <xTaskResumeAll+0x122>
    4cce:	2301      	movs	r3, #1
    4cd0:	607b      	str	r3, [r7, #4]
    4cd2:	f240 330c 	movw	r3, #780	; 0x30c
    4cd6:	f2c2 0300 	movt	r3, #8192	; 0x2000
    4cda:	2200      	movs	r2, #0
    4cdc:	601a      	str	r2, [r3, #0]
    4cde:	f000 fd2d 	bl	573c <vPortYieldFromISR>
    4ce2:	f000 fd4f 	bl	5784 <vPortExitCritical>
    4ce6:	687b      	ldr	r3, [r7, #4]
    4ce8:	4618      	mov	r0, r3
    4cea:	370c      	adds	r7, #12
    4cec:	46bd      	mov	sp, r7
    4cee:	bd90      	pop	{r4, r7, pc}

00004cf0 <xTaskGetTickCount>:
    4cf0:	b580      	push	{r7, lr}
    4cf2:	b082      	sub	sp, #8
    4cf4:	af00      	add	r7, sp, #0
    4cf6:	f000 fd2f 	bl	5758 <vPortEnterCritical>
    4cfa:	f240 23f4 	movw	r3, #756	; 0x2f4
    4cfe:	f2c2 0300 	movt	r3, #8192	; 0x2000
    4d02:	681b      	ldr	r3, [r3, #0]
    4d04:	607b      	str	r3, [r7, #4]
    4d06:	f000 fd3d 	bl	5784 <vPortExitCritical>
    4d0a:	687b      	ldr	r3, [r7, #4]
    4d0c:	4618      	mov	r0, r3
    4d0e:	3708      	adds	r7, #8
    4d10:	46bd      	mov	sp, r7
    4d12:	bd80      	pop	{r7, pc}

00004d14 <xTaskGetTickCountFromISR>:
    4d14:	b480      	push	{r7}
    4d16:	b083      	sub	sp, #12
    4d18:	af00      	add	r7, sp, #0
    4d1a:	2300      	movs	r3, #0
    4d1c:	607b      	str	r3, [r7, #4]
    4d1e:	f04f 00bf 	mov.w	r0, #191	; 0xbf
    4d22:	f380 8811 	msr	BASEPRI, r0
    4d26:	f240 23f4 	movw	r3, #756	; 0x2f4
    4d2a:	f2c2 0300 	movt	r3, #8192	; 0x2000
    4d2e:	681b      	ldr	r3, [r3, #0]
    4d30:	603b      	str	r3, [r7, #0]
    4d32:	f04f 0000 	mov.w	r0, #0
    4d36:	f380 8811 	msr	BASEPRI, r0
    4d3a:	683b      	ldr	r3, [r7, #0]
    4d3c:	4618      	mov	r0, r3
    4d3e:	370c      	adds	r7, #12
    4d40:	46bd      	mov	sp, r7
    4d42:	f85d 7b04 	ldr.w	r7, [sp], #4
    4d46:	4770      	bx	lr

00004d48 <uxTaskGetNumberOfTasks>:
    4d48:	b480      	push	{r7}
    4d4a:	af00      	add	r7, sp, #0
    4d4c:	f240 23f0 	movw	r3, #752	; 0x2f0
    4d50:	f2c2 0300 	movt	r3, #8192	; 0x2000
    4d54:	681b      	ldr	r3, [r3, #0]
    4d56:	4618      	mov	r0, r3
    4d58:	46bd      	mov	sp, r7
    4d5a:	f85d 7b04 	ldr.w	r7, [sp], #4
    4d5e:	4770      	bx	lr

00004d60 <vTaskIncrementTick>:
    4d60:	b580      	push	{r7, lr}
    4d62:	b084      	sub	sp, #16
    4d64:	af00      	add	r7, sp, #0
    4d66:	f240 3304 	movw	r3, #772	; 0x304
    4d6a:	f2c2 0300 	movt	r3, #8192	; 0x2000
    4d6e:	681b      	ldr	r3, [r3, #0]
    4d70:	2b00      	cmp	r3, #0
    4d72:	f040 80b9 	bne.w	4ee8 <vTaskIncrementTick+0x188>
    4d76:	f240 23f4 	movw	r3, #756	; 0x2f4
    4d7a:	f2c2 0300 	movt	r3, #8192	; 0x2000
    4d7e:	681b      	ldr	r3, [r3, #0]
    4d80:	1c5a      	adds	r2, r3, #1
    4d82:	f240 23f4 	movw	r3, #756	; 0x2f4
    4d86:	f2c2 0300 	movt	r3, #8192	; 0x2000
    4d8a:	601a      	str	r2, [r3, #0]
    4d8c:	f240 23f4 	movw	r3, #756	; 0x2f4
    4d90:	f2c2 0300 	movt	r3, #8192	; 0x2000
    4d94:	681b      	ldr	r3, [r3, #0]
    4d96:	2b00      	cmp	r3, #0
    4d98:	d13f      	bne.n	4e1a <vTaskIncrementTick+0xba>
    4d9a:	f240 23a8 	movw	r3, #680	; 0x2a8
    4d9e:	f2c2 0300 	movt	r3, #8192	; 0x2000
    4da2:	681b      	ldr	r3, [r3, #0]
    4da4:	60fb      	str	r3, [r7, #12]
    4da6:	f240 23ac 	movw	r3, #684	; 0x2ac
    4daa:	f2c2 0300 	movt	r3, #8192	; 0x2000
    4dae:	681a      	ldr	r2, [r3, #0]
    4db0:	f240 23a8 	movw	r3, #680	; 0x2a8
    4db4:	f2c2 0300 	movt	r3, #8192	; 0x2000
    4db8:	601a      	str	r2, [r3, #0]
    4dba:	f240 23ac 	movw	r3, #684	; 0x2ac
    4dbe:	f2c2 0300 	movt	r3, #8192	; 0x2000
    4dc2:	68fa      	ldr	r2, [r7, #12]
    4dc4:	601a      	str	r2, [r3, #0]
    4dc6:	f240 3310 	movw	r3, #784	; 0x310
    4dca:	f2c2 0300 	movt	r3, #8192	; 0x2000
    4dce:	681b      	ldr	r3, [r3, #0]
    4dd0:	1c5a      	adds	r2, r3, #1
    4dd2:	f240 3310 	movw	r3, #784	; 0x310
    4dd6:	f2c2 0300 	movt	r3, #8192	; 0x2000
    4dda:	601a      	str	r2, [r3, #0]
    4ddc:	f240 23a8 	movw	r3, #680	; 0x2a8
    4de0:	f2c2 0300 	movt	r3, #8192	; 0x2000
    4de4:	681b      	ldr	r3, [r3, #0]
    4de6:	681b      	ldr	r3, [r3, #0]
    4de8:	2b00      	cmp	r3, #0
    4dea:	d107      	bne.n	4dfc <vTaskIncrementTick+0x9c>
    4dec:	f240 032c 	movw	r3, #44	; 0x2c
    4df0:	f2c2 0300 	movt	r3, #8192	; 0x2000
    4df4:	f04f 32ff 	mov.w	r2, #4294967295
    4df8:	601a      	str	r2, [r3, #0]
    4dfa:	e00e      	b.n	4e1a <vTaskIncrementTick+0xba>
    4dfc:	f240 23a8 	movw	r3, #680	; 0x2a8
    4e00:	f2c2 0300 	movt	r3, #8192	; 0x2000
    4e04:	681b      	ldr	r3, [r3, #0]
    4e06:	68db      	ldr	r3, [r3, #12]
    4e08:	68db      	ldr	r3, [r3, #12]
    4e0a:	60bb      	str	r3, [r7, #8]
    4e0c:	68bb      	ldr	r3, [r7, #8]
    4e0e:	685a      	ldr	r2, [r3, #4]
    4e10:	f240 032c 	movw	r3, #44	; 0x2c
    4e14:	f2c2 0300 	movt	r3, #8192	; 0x2000
    4e18:	601a      	str	r2, [r3, #0]
    4e1a:	f240 23f4 	movw	r3, #756	; 0x2f4
    4e1e:	f2c2 0300 	movt	r3, #8192	; 0x2000
    4e22:	681a      	ldr	r2, [r3, #0]
    4e24:	f240 032c 	movw	r3, #44	; 0x2c
    4e28:	f2c2 0300 	movt	r3, #8192	; 0x2000
    4e2c:	681b      	ldr	r3, [r3, #0]
    4e2e:	429a      	cmp	r2, r3
    4e30:	d359      	bcc.n	4ee6 <vTaskIncrementTick+0x186>
    4e32:	f240 23a8 	movw	r3, #680	; 0x2a8
    4e36:	f2c2 0300 	movt	r3, #8192	; 0x2000
    4e3a:	681b      	ldr	r3, [r3, #0]
    4e3c:	681b      	ldr	r3, [r3, #0]
    4e3e:	2b00      	cmp	r3, #0
    4e40:	d107      	bne.n	4e52 <vTaskIncrementTick+0xf2>
    4e42:	f240 032c 	movw	r3, #44	; 0x2c
    4e46:	f2c2 0300 	movt	r3, #8192	; 0x2000
    4e4a:	f04f 32ff 	mov.w	r2, #4294967295
    4e4e:	601a      	str	r2, [r3, #0]
    4e50:	e049      	b.n	4ee6 <vTaskIncrementTick+0x186>
    4e52:	f240 23a8 	movw	r3, #680	; 0x2a8
    4e56:	f2c2 0300 	movt	r3, #8192	; 0x2000
    4e5a:	681b      	ldr	r3, [r3, #0]
    4e5c:	68db      	ldr	r3, [r3, #12]
    4e5e:	68db      	ldr	r3, [r3, #12]
    4e60:	60bb      	str	r3, [r7, #8]
    4e62:	68bb      	ldr	r3, [r7, #8]
    4e64:	685b      	ldr	r3, [r3, #4]
    4e66:	607b      	str	r3, [r7, #4]
    4e68:	f240 23f4 	movw	r3, #756	; 0x2f4
    4e6c:	f2c2 0300 	movt	r3, #8192	; 0x2000
    4e70:	681a      	ldr	r2, [r3, #0]
    4e72:	687b      	ldr	r3, [r7, #4]
    4e74:	429a      	cmp	r2, r3
    4e76:	d206      	bcs.n	4e86 <vTaskIncrementTick+0x126>
    4e78:	f240 032c 	movw	r3, #44	; 0x2c
    4e7c:	f2c2 0300 	movt	r3, #8192	; 0x2000
    4e80:	687a      	ldr	r2, [r7, #4]
    4e82:	601a      	str	r2, [r3, #0]
    4e84:	e02f      	b.n	4ee6 <vTaskIncrementTick+0x186>
    4e86:	68bb      	ldr	r3, [r7, #8]
    4e88:	3304      	adds	r3, #4
    4e8a:	4618      	mov	r0, r3
    4e8c:	f7fe feb2 	bl	3bf4 <vListRemove>
    4e90:	68bb      	ldr	r3, [r7, #8]
    4e92:	6a9b      	ldr	r3, [r3, #40]	; 0x28
    4e94:	2b00      	cmp	r3, #0
    4e96:	d004      	beq.n	4ea2 <vTaskIncrementTick+0x142>
    4e98:	68bb      	ldr	r3, [r7, #8]
    4e9a:	3318      	adds	r3, #24
    4e9c:	4618      	mov	r0, r3
    4e9e:	f7fe fea9 	bl	3bf4 <vListRemove>
    4ea2:	68bb      	ldr	r3, [r7, #8]
    4ea4:	6ada      	ldr	r2, [r3, #44]	; 0x2c
    4ea6:	f240 23fc 	movw	r3, #764	; 0x2fc
    4eaa:	f2c2 0300 	movt	r3, #8192	; 0x2000
    4eae:	681b      	ldr	r3, [r3, #0]
    4eb0:	429a      	cmp	r2, r3
    4eb2:	d906      	bls.n	4ec2 <vTaskIncrementTick+0x162>
    4eb4:	68bb      	ldr	r3, [r7, #8]
    4eb6:	6ada      	ldr	r2, [r3, #44]	; 0x2c
    4eb8:	f240 23fc 	movw	r3, #764	; 0x2fc
    4ebc:	f2c2 0300 	movt	r3, #8192	; 0x2000
    4ec0:	601a      	str	r2, [r3, #0]
    4ec2:	68bb      	ldr	r3, [r7, #8]
    4ec4:	6ada      	ldr	r2, [r3, #44]	; 0x2c
    4ec6:	4613      	mov	r3, r2
    4ec8:	009b      	lsls	r3, r3, #2
    4eca:	4413      	add	r3, r2
    4ecc:	009b      	lsls	r3, r3, #2
    4ece:	f240 02f0 	movw	r2, #240	; 0xf0
    4ed2:	f2c2 0200 	movt	r2, #8192	; 0x2000
    4ed6:	441a      	add	r2, r3
    4ed8:	68bb      	ldr	r3, [r7, #8]
    4eda:	3304      	adds	r3, #4
    4edc:	4610      	mov	r0, r2
    4ede:	4619      	mov	r1, r3
    4ee0:	f7fe fe28 	bl	3b34 <vListInsertEnd>
    4ee4:	e7a5      	b.n	4e32 <vTaskIncrementTick+0xd2>
    4ee6:	e00c      	b.n	4f02 <vTaskIncrementTick+0x1a2>
    4ee8:	f240 3308 	movw	r3, #776	; 0x308
    4eec:	f2c2 0300 	movt	r3, #8192	; 0x2000
    4ef0:	681b      	ldr	r3, [r3, #0]
    4ef2:	1c5a      	adds	r2, r3, #1
    4ef4:	f240 3308 	movw	r3, #776	; 0x308
    4ef8:	f2c2 0300 	movt	r3, #8192	; 0x2000
    4efc:	601a      	str	r2, [r3, #0]
    4efe:	f001 f805 	bl	5f0c <vApplicationTickHook>
    4f02:	f240 3308 	movw	r3, #776	; 0x308
    4f06:	f2c2 0300 	movt	r3, #8192	; 0x2000
    4f0a:	681b      	ldr	r3, [r3, #0]
    4f0c:	2b00      	cmp	r3, #0
    4f0e:	d101      	bne.n	4f14 <vTaskIncrementTick+0x1b4>
    4f10:	f000 fffc 	bl	5f0c <vApplicationTickHook>
    4f14:	3710      	adds	r7, #16
    4f16:	46bd      	mov	sp, r7
    4f18:	bd80      	pop	{r7, pc}
    4f1a:	bf00      	nop

00004f1c <vTaskSwitchContext>:
    4f1c:	b580      	push	{r7, lr}
    4f1e:	b082      	sub	sp, #8
    4f20:	af00      	add	r7, sp, #0
    4f22:	f240 3304 	movw	r3, #772	; 0x304
    4f26:	f2c2 0300 	movt	r3, #8192	; 0x2000
    4f2a:	681b      	ldr	r3, [r3, #0]
    4f2c:	2b00      	cmp	r3, #0
    4f2e:	d006      	beq.n	4f3e <vTaskSwitchContext+0x22>
    4f30:	f240 330c 	movw	r3, #780	; 0x30c
    4f34:	f2c2 0300 	movt	r3, #8192	; 0x2000
    4f38:	2201      	movs	r2, #1
    4f3a:	601a      	str	r2, [r3, #0]
    4f3c:	e047      	b.n	4fce <vTaskSwitchContext+0xb2>
    4f3e:	f000 ffdf 	bl	5f00 <myTraceSwitchedOut>
    4f42:	e00a      	b.n	4f5a <vTaskSwitchContext+0x3e>
    4f44:	f240 23fc 	movw	r3, #764	; 0x2fc
    4f48:	f2c2 0300 	movt	r3, #8192	; 0x2000
    4f4c:	681b      	ldr	r3, [r3, #0]
    4f4e:	1e5a      	subs	r2, r3, #1
    4f50:	f240 23fc 	movw	r3, #764	; 0x2fc
    4f54:	f2c2 0300 	movt	r3, #8192	; 0x2000
    4f58:	601a      	str	r2, [r3, #0]
    4f5a:	f240 23fc 	movw	r3, #764	; 0x2fc
    4f5e:	f2c2 0300 	movt	r3, #8192	; 0x2000
    4f62:	6819      	ldr	r1, [r3, #0]
    4f64:	f240 02f0 	movw	r2, #240	; 0xf0
    4f68:	f2c2 0200 	movt	r2, #8192	; 0x2000
    4f6c:	460b      	mov	r3, r1
    4f6e:	009b      	lsls	r3, r3, #2
    4f70:	440b      	add	r3, r1
    4f72:	009b      	lsls	r3, r3, #2
    4f74:	4413      	add	r3, r2
    4f76:	681b      	ldr	r3, [r3, #0]
    4f78:	2b00      	cmp	r3, #0
    4f7a:	d0e3      	beq.n	4f44 <vTaskSwitchContext+0x28>
    4f7c:	f240 23fc 	movw	r3, #764	; 0x2fc
    4f80:	f2c2 0300 	movt	r3, #8192	; 0x2000
    4f84:	681a      	ldr	r2, [r3, #0]
    4f86:	4613      	mov	r3, r2
    4f88:	009b      	lsls	r3, r3, #2
    4f8a:	4413      	add	r3, r2
    4f8c:	009b      	lsls	r3, r3, #2
    4f8e:	f240 02f0 	movw	r2, #240	; 0xf0
    4f92:	f2c2 0200 	movt	r2, #8192	; 0x2000
    4f96:	4413      	add	r3, r2
    4f98:	607b      	str	r3, [r7, #4]
    4f9a:	687b      	ldr	r3, [r7, #4]
    4f9c:	685b      	ldr	r3, [r3, #4]
    4f9e:	685a      	ldr	r2, [r3, #4]
    4fa0:	687b      	ldr	r3, [r7, #4]
    4fa2:	605a      	str	r2, [r3, #4]
    4fa4:	687b      	ldr	r3, [r7, #4]
    4fa6:	685a      	ldr	r2, [r3, #4]
    4fa8:	687b      	ldr	r3, [r7, #4]
    4faa:	3308      	adds	r3, #8
    4fac:	429a      	cmp	r2, r3
    4fae:	d104      	bne.n	4fba <vTaskSwitchContext+0x9e>
    4fb0:	687b      	ldr	r3, [r7, #4]
    4fb2:	685b      	ldr	r3, [r3, #4]
    4fb4:	685a      	ldr	r2, [r3, #4]
    4fb6:	687b      	ldr	r3, [r7, #4]
    4fb8:	605a      	str	r2, [r3, #4]
    4fba:	687b      	ldr	r3, [r7, #4]
    4fbc:	685b      	ldr	r3, [r3, #4]
    4fbe:	68da      	ldr	r2, [r3, #12]
    4fc0:	f240 03ec 	movw	r3, #236	; 0xec
    4fc4:	f2c2 0300 	movt	r3, #8192	; 0x2000
    4fc8:	601a      	str	r2, [r3, #0]
    4fca:	f000 ff93 	bl	5ef4 <myTraceSwitchedIn>
    4fce:	3708      	adds	r7, #8
    4fd0:	46bd      	mov	sp, r7
    4fd2:	bd80      	pop	{r7, pc}

00004fd4 <vTaskPlaceOnEventList>:
    4fd4:	b580      	push	{r7, lr}
    4fd6:	b084      	sub	sp, #16
    4fd8:	af00      	add	r7, sp, #0
    4fda:	6078      	str	r0, [r7, #4]
    4fdc:	6039      	str	r1, [r7, #0]
    4fde:	f240 03ec 	movw	r3, #236	; 0xec
    4fe2:	f2c2 0300 	movt	r3, #8192	; 0x2000
    4fe6:	681b      	ldr	r3, [r3, #0]
    4fe8:	3318      	adds	r3, #24
    4fea:	6878      	ldr	r0, [r7, #4]
    4fec:	4619      	mov	r1, r3
    4fee:	f7fe fdc9 	bl	3b84 <vListInsert>
    4ff2:	f240 03ec 	movw	r3, #236	; 0xec
    4ff6:	f2c2 0300 	movt	r3, #8192	; 0x2000
    4ffa:	681b      	ldr	r3, [r3, #0]
    4ffc:	3304      	adds	r3, #4
    4ffe:	4618      	mov	r0, r3
    5000:	f7fe fdf8 	bl	3bf4 <vListRemove>
    5004:	683b      	ldr	r3, [r7, #0]
    5006:	f1b3 3fff 	cmp.w	r3, #4294967295
    500a:	d10d      	bne.n	5028 <vTaskPlaceOnEventList+0x54>
    500c:	f240 03ec 	movw	r3, #236	; 0xec
    5010:	f2c2 0300 	movt	r3, #8192	; 0x2000
    5014:	681b      	ldr	r3, [r3, #0]
    5016:	3304      	adds	r3, #4
    5018:	f240 20dc 	movw	r0, #732	; 0x2dc
    501c:	f2c2 0000 	movt	r0, #8192	; 0x2000
    5020:	4619      	mov	r1, r3
    5022:	f7fe fd87 	bl	3b34 <vListInsertEnd>
    5026:	e00a      	b.n	503e <vTaskPlaceOnEventList+0x6a>
    5028:	f240 23f4 	movw	r3, #756	; 0x2f4
    502c:	f2c2 0300 	movt	r3, #8192	; 0x2000
    5030:	681a      	ldr	r2, [r3, #0]
    5032:	683b      	ldr	r3, [r7, #0]
    5034:	4413      	add	r3, r2
    5036:	60fb      	str	r3, [r7, #12]
    5038:	68f8      	ldr	r0, [r7, #12]
    503a:	f000 f99f 	bl	537c <prvAddCurrentTaskToDelayedList>
    503e:	3710      	adds	r7, #16
    5040:	46bd      	mov	sp, r7
    5042:	bd80      	pop	{r7, pc}

00005044 <xTaskRemoveFromEventList>:
    5044:	b580      	push	{r7, lr}
    5046:	b084      	sub	sp, #16
    5048:	af00      	add	r7, sp, #0
    504a:	6078      	str	r0, [r7, #4]
    504c:	687b      	ldr	r3, [r7, #4]
    504e:	68db      	ldr	r3, [r3, #12]
    5050:	68db      	ldr	r3, [r3, #12]
    5052:	60bb      	str	r3, [r7, #8]
    5054:	68bb      	ldr	r3, [r7, #8]
    5056:	3318      	adds	r3, #24
    5058:	4618      	mov	r0, r3
    505a:	f7fe fdcb 	bl	3bf4 <vListRemove>
    505e:	f240 3304 	movw	r3, #772	; 0x304
    5062:	f2c2 0300 	movt	r3, #8192	; 0x2000
    5066:	681b      	ldr	r3, [r3, #0]
    5068:	2b00      	cmp	r3, #0
    506a:	d126      	bne.n	50ba <xTaskRemoveFromEventList+0x76>
    506c:	68bb      	ldr	r3, [r7, #8]
    506e:	3304      	adds	r3, #4
    5070:	4618      	mov	r0, r3
    5072:	f7fe fdbf 	bl	3bf4 <vListRemove>
    5076:	68bb      	ldr	r3, [r7, #8]
    5078:	6ada      	ldr	r2, [r3, #44]	; 0x2c
    507a:	f240 23fc 	movw	r3, #764	; 0x2fc
    507e:	f2c2 0300 	movt	r3, #8192	; 0x2000
    5082:	681b      	ldr	r3, [r3, #0]
    5084:	429a      	cmp	r2, r3
    5086:	d906      	bls.n	5096 <xTaskRemoveFromEventList+0x52>
    5088:	68bb      	ldr	r3, [r7, #8]
    508a:	6ada      	ldr	r2, [r3, #44]	; 0x2c
    508c:	f240 23fc 	movw	r3, #764	; 0x2fc
    5090:	f2c2 0300 	movt	r3, #8192	; 0x2000
    5094:	601a      	str	r2, [r3, #0]
    5096:	68bb      	ldr	r3, [r7, #8]
    5098:	6ada      	ldr	r2, [r3, #44]	; 0x2c
    509a:	4613      	mov	r3, r2
    509c:	009b      	lsls	r3, r3, #2
    509e:	4413      	add	r3, r2
    50a0:	009b      	lsls	r3, r3, #2
    50a2:	f240 02f0 	movw	r2, #240	; 0xf0
    50a6:	f2c2 0200 	movt	r2, #8192	; 0x2000
    50aa:	441a      	add	r2, r3
    50ac:	68bb      	ldr	r3, [r7, #8]
    50ae:	3304      	adds	r3, #4
    50b0:	4610      	mov	r0, r2
    50b2:	4619      	mov	r1, r3
    50b4:	f7fe fd3e 	bl	3b34 <vListInsertEnd>
    50b8:	e008      	b.n	50cc <xTaskRemoveFromEventList+0x88>
    50ba:	68bb      	ldr	r3, [r7, #8]
    50bc:	3318      	adds	r3, #24
    50be:	f240 20b0 	movw	r0, #688	; 0x2b0
    50c2:	f2c2 0000 	movt	r0, #8192	; 0x2000
    50c6:	4619      	mov	r1, r3
    50c8:	f7fe fd34 	bl	3b34 <vListInsertEnd>
    50cc:	68bb      	ldr	r3, [r7, #8]
    50ce:	6ada      	ldr	r2, [r3, #44]	; 0x2c
    50d0:	f240 03ec 	movw	r3, #236	; 0xec
    50d4:	f2c2 0300 	movt	r3, #8192	; 0x2000
    50d8:	681b      	ldr	r3, [r3, #0]
    50da:	6adb      	ldr	r3, [r3, #44]	; 0x2c
    50dc:	429a      	cmp	r2, r3
    50de:	d302      	bcc.n	50e6 <xTaskRemoveFromEventList+0xa2>
    50e0:	2301      	movs	r3, #1
    50e2:	60fb      	str	r3, [r7, #12]
    50e4:	e001      	b.n	50ea <xTaskRemoveFromEventList+0xa6>
    50e6:	2300      	movs	r3, #0
    50e8:	60fb      	str	r3, [r7, #12]
    50ea:	68fb      	ldr	r3, [r7, #12]
    50ec:	4618      	mov	r0, r3
    50ee:	3710      	adds	r7, #16
    50f0:	46bd      	mov	sp, r7
    50f2:	bd80      	pop	{r7, pc}

000050f4 <vTaskSetTimeOutState>:
    50f4:	b480      	push	{r7}
    50f6:	b083      	sub	sp, #12
    50f8:	af00      	add	r7, sp, #0
    50fa:	6078      	str	r0, [r7, #4]
    50fc:	f240 3310 	movw	r3, #784	; 0x310
    5100:	f2c2 0300 	movt	r3, #8192	; 0x2000
    5104:	681a      	ldr	r2, [r3, #0]
    5106:	687b      	ldr	r3, [r7, #4]
    5108:	601a      	str	r2, [r3, #0]
    510a:	f240 23f4 	movw	r3, #756	; 0x2f4
    510e:	f2c2 0300 	movt	r3, #8192	; 0x2000
    5112:	681a      	ldr	r2, [r3, #0]
    5114:	687b      	ldr	r3, [r7, #4]
    5116:	605a      	str	r2, [r3, #4]
    5118:	370c      	adds	r7, #12
    511a:	46bd      	mov	sp, r7
    511c:	f85d 7b04 	ldr.w	r7, [sp], #4
    5120:	4770      	bx	lr
    5122:	bf00      	nop

00005124 <xTaskCheckForTimeOut>:
    5124:	b580      	push	{r7, lr}
    5126:	b084      	sub	sp, #16
    5128:	af00      	add	r7, sp, #0
    512a:	6078      	str	r0, [r7, #4]
    512c:	6039      	str	r1, [r7, #0]
    512e:	f000 fb13 	bl	5758 <vPortEnterCritical>
    5132:	683b      	ldr	r3, [r7, #0]
    5134:	681b      	ldr	r3, [r3, #0]
    5136:	f1b3 3fff 	cmp.w	r3, #4294967295
    513a:	d102      	bne.n	5142 <xTaskCheckForTimeOut+0x1e>
    513c:	2300      	movs	r3, #0
    513e:	60fb      	str	r3, [r7, #12]
    5140:	e035      	b.n	51ae <xTaskCheckForTimeOut+0x8a>
    5142:	687b      	ldr	r3, [r7, #4]
    5144:	681a      	ldr	r2, [r3, #0]
    5146:	f240 3310 	movw	r3, #784	; 0x310
    514a:	f2c2 0300 	movt	r3, #8192	; 0x2000
    514e:	681b      	ldr	r3, [r3, #0]
    5150:	429a      	cmp	r2, r3
    5152:	d00b      	beq.n	516c <xTaskCheckForTimeOut+0x48>
    5154:	687b      	ldr	r3, [r7, #4]
    5156:	685a      	ldr	r2, [r3, #4]
    5158:	f240 23f4 	movw	r3, #756	; 0x2f4
    515c:	f2c2 0300 	movt	r3, #8192	; 0x2000
    5160:	681b      	ldr	r3, [r3, #0]
    5162:	429a      	cmp	r2, r3
    5164:	d802      	bhi.n	516c <xTaskCheckForTimeOut+0x48>
    5166:	2301      	movs	r3, #1
    5168:	60fb      	str	r3, [r7, #12]
    516a:	e020      	b.n	51ae <xTaskCheckForTimeOut+0x8a>
    516c:	f240 23f4 	movw	r3, #756	; 0x2f4
    5170:	f2c2 0300 	movt	r3, #8192	; 0x2000
    5174:	681a      	ldr	r2, [r3, #0]
    5176:	687b      	ldr	r3, [r7, #4]
    5178:	685b      	ldr	r3, [r3, #4]
    517a:	1ad2      	subs	r2, r2, r3
    517c:	683b      	ldr	r3, [r7, #0]
    517e:	681b      	ldr	r3, [r3, #0]
    5180:	429a      	cmp	r2, r3
    5182:	d212      	bcs.n	51aa <xTaskCheckForTimeOut+0x86>
    5184:	683b      	ldr	r3, [r7, #0]
    5186:	681a      	ldr	r2, [r3, #0]
    5188:	687b      	ldr	r3, [r7, #4]
    518a:	6859      	ldr	r1, [r3, #4]
    518c:	f240 23f4 	movw	r3, #756	; 0x2f4
    5190:	f2c2 0300 	movt	r3, #8192	; 0x2000
    5194:	681b      	ldr	r3, [r3, #0]
    5196:	1acb      	subs	r3, r1, r3
    5198:	441a      	add	r2, r3
    519a:	683b      	ldr	r3, [r7, #0]
    519c:	601a      	str	r2, [r3, #0]
    519e:	6878      	ldr	r0, [r7, #4]
    51a0:	f7ff ffa8 	bl	50f4 <vTaskSetTimeOutState>
    51a4:	2300      	movs	r3, #0
    51a6:	60fb      	str	r3, [r7, #12]
    51a8:	e001      	b.n	51ae <xTaskCheckForTimeOut+0x8a>
    51aa:	2301      	movs	r3, #1
    51ac:	60fb      	str	r3, [r7, #12]
    51ae:	f000 fae9 	bl	5784 <vPortExitCritical>
    51b2:	68fb      	ldr	r3, [r7, #12]
    51b4:	4618      	mov	r0, r3
    51b6:	3710      	adds	r7, #16
    51b8:	46bd      	mov	sp, r7
    51ba:	bd80      	pop	{r7, pc}

000051bc <vTaskMissedYield>:
    51bc:	b480      	push	{r7}
    51be:	af00      	add	r7, sp, #0
    51c0:	f240 330c 	movw	r3, #780	; 0x30c
    51c4:	f2c2 0300 	movt	r3, #8192	; 0x2000
    51c8:	2201      	movs	r2, #1
    51ca:	601a      	str	r2, [r3, #0]
    51cc:	46bd      	mov	sp, r7
    51ce:	f85d 7b04 	ldr.w	r7, [sp], #4
    51d2:	4770      	bx	lr

000051d4 <prvIdleTask>:
    51d4:	b580      	push	{r7, lr}
    51d6:	b082      	sub	sp, #8
    51d8:	af00      	add	r7, sp, #0
    51da:	6078      	str	r0, [r7, #4]
    51dc:	f000 f886 	bl	52ec <prvCheckTasksWaitingTermination>
    51e0:	f000 faac 	bl	573c <vPortYieldFromISR>
    51e4:	e7fa      	b.n	51dc <prvIdleTask+0x8>
    51e6:	bf00      	nop

000051e8 <prvInitialiseTCBVariables>:
    51e8:	b580      	push	{r7, lr}
    51ea:	b084      	sub	sp, #16
    51ec:	af00      	add	r7, sp, #0
    51ee:	60f8      	str	r0, [r7, #12]
    51f0:	60b9      	str	r1, [r7, #8]
    51f2:	607a      	str	r2, [r7, #4]
    51f4:	603b      	str	r3, [r7, #0]
    51f6:	68fb      	ldr	r3, [r7, #12]
    51f8:	3334      	adds	r3, #52	; 0x34
    51fa:	4618      	mov	r0, r3
    51fc:	68b9      	ldr	r1, [r7, #8]
    51fe:	2210      	movs	r2, #16
    5200:	f000 ff7a 	bl	60f8 <strncpy>
    5204:	68fb      	ldr	r3, [r7, #12]
    5206:	2200      	movs	r2, #0
    5208:	f883 2043 	strb.w	r2, [r3, #67]	; 0x43
    520c:	687b      	ldr	r3, [r7, #4]
    520e:	2b13      	cmp	r3, #19
    5210:	d901      	bls.n	5216 <prvInitialiseTCBVariables+0x2e>
    5212:	2313      	movs	r3, #19
    5214:	607b      	str	r3, [r7, #4]
    5216:	68fb      	ldr	r3, [r7, #12]
    5218:	687a      	ldr	r2, [r7, #4]
    521a:	62da      	str	r2, [r3, #44]	; 0x2c
    521c:	68fb      	ldr	r3, [r7, #12]
    521e:	687a      	ldr	r2, [r7, #4]
    5220:	64da      	str	r2, [r3, #76]	; 0x4c
    5222:	68fb      	ldr	r3, [r7, #12]
    5224:	3304      	adds	r3, #4
    5226:	4618      	mov	r0, r3
    5228:	f7fe fc78 	bl	3b1c <vListInitialiseItem>
    522c:	68fb      	ldr	r3, [r7, #12]
    522e:	3318      	adds	r3, #24
    5230:	4618      	mov	r0, r3
    5232:	f7fe fc73 	bl	3b1c <vListInitialiseItem>
    5236:	68fb      	ldr	r3, [r7, #12]
    5238:	68fa      	ldr	r2, [r7, #12]
    523a:	611a      	str	r2, [r3, #16]
    523c:	687b      	ldr	r3, [r7, #4]
    523e:	f1c3 0214 	rsb	r2, r3, #20
    5242:	68fb      	ldr	r3, [r7, #12]
    5244:	619a      	str	r2, [r3, #24]
    5246:	68fb      	ldr	r3, [r7, #12]
    5248:	68fa      	ldr	r2, [r7, #12]
    524a:	625a      	str	r2, [r3, #36]	; 0x24
    524c:	3710      	adds	r7, #16
    524e:	46bd      	mov	sp, r7
    5250:	bd80      	pop	{r7, pc}
    5252:	bf00      	nop

00005254 <prvInitialiseTaskLists>:
    5254:	b580      	push	{r7, lr}
    5256:	b082      	sub	sp, #8
    5258:	af00      	add	r7, sp, #0
    525a:	2300      	movs	r3, #0
    525c:	607b      	str	r3, [r7, #4]
    525e:	e00f      	b.n	5280 <prvInitialiseTaskLists+0x2c>
    5260:	687a      	ldr	r2, [r7, #4]
    5262:	4613      	mov	r3, r2
    5264:	009b      	lsls	r3, r3, #2
    5266:	4413      	add	r3, r2
    5268:	009b      	lsls	r3, r3, #2
    526a:	f240 02f0 	movw	r2, #240	; 0xf0
    526e:	f2c2 0200 	movt	r2, #8192	; 0x2000
    5272:	4413      	add	r3, r2
    5274:	4618      	mov	r0, r3
    5276:	f7fe fc31 	bl	3adc <vListInitialise>
    527a:	687b      	ldr	r3, [r7, #4]
    527c:	3301      	adds	r3, #1
    527e:	607b      	str	r3, [r7, #4]
    5280:	687b      	ldr	r3, [r7, #4]
    5282:	2b13      	cmp	r3, #19
    5284:	d9ec      	bls.n	5260 <prvInitialiseTaskLists+0xc>
    5286:	f240 2080 	movw	r0, #640	; 0x280
    528a:	f2c2 0000 	movt	r0, #8192	; 0x2000
    528e:	f7fe fc25 	bl	3adc <vListInitialise>
    5292:	f240 2094 	movw	r0, #660	; 0x294
    5296:	f2c2 0000 	movt	r0, #8192	; 0x2000
    529a:	f7fe fc1f 	bl	3adc <vListInitialise>
    529e:	f240 20b0 	movw	r0, #688	; 0x2b0
    52a2:	f2c2 0000 	movt	r0, #8192	; 0x2000
    52a6:	f7fe fc19 	bl	3adc <vListInitialise>
    52aa:	f240 20c4 	movw	r0, #708	; 0x2c4
    52ae:	f2c2 0000 	movt	r0, #8192	; 0x2000
    52b2:	f7fe fc13 	bl	3adc <vListInitialise>
    52b6:	f240 20dc 	movw	r0, #732	; 0x2dc
    52ba:	f2c2 0000 	movt	r0, #8192	; 0x2000
    52be:	f7fe fc0d 	bl	3adc <vListInitialise>
    52c2:	f240 23a8 	movw	r3, #680	; 0x2a8
    52c6:	f2c2 0300 	movt	r3, #8192	; 0x2000
    52ca:	f240 2280 	movw	r2, #640	; 0x280
    52ce:	f2c2 0200 	movt	r2, #8192	; 0x2000
    52d2:	601a      	str	r2, [r3, #0]
    52d4:	f240 23ac 	movw	r3, #684	; 0x2ac
    52d8:	f2c2 0300 	movt	r3, #8192	; 0x2000
    52dc:	f240 2294 	movw	r2, #660	; 0x294
    52e0:	f2c2 0200 	movt	r2, #8192	; 0x2000
    52e4:	601a      	str	r2, [r3, #0]
    52e6:	3708      	adds	r7, #8
    52e8:	46bd      	mov	sp, r7
    52ea:	bd80      	pop	{r7, pc}

000052ec <prvCheckTasksWaitingTermination>:
    52ec:	b580      	push	{r7, lr}
    52ee:	b082      	sub	sp, #8
    52f0:	af00      	add	r7, sp, #0
    52f2:	f240 23d8 	movw	r3, #728	; 0x2d8
    52f6:	f2c2 0300 	movt	r3, #8192	; 0x2000
    52fa:	681b      	ldr	r3, [r3, #0]
    52fc:	2b00      	cmp	r3, #0
    52fe:	d03a      	beq.n	5376 <prvCheckTasksWaitingTermination+0x8a>
    5300:	f7ff fc4c 	bl	4b9c <vTaskSuspendAll>
    5304:	f240 23c4 	movw	r3, #708	; 0x2c4
    5308:	f2c2 0300 	movt	r3, #8192	; 0x2000
    530c:	681b      	ldr	r3, [r3, #0]
    530e:	2b00      	cmp	r3, #0
    5310:	bf14      	ite	ne
    5312:	2300      	movne	r3, #0
    5314:	2301      	moveq	r3, #1
    5316:	b2db      	uxtb	r3, r3
    5318:	607b      	str	r3, [r7, #4]
    531a:	f7ff fc51 	bl	4bc0 <xTaskResumeAll>
    531e:	687b      	ldr	r3, [r7, #4]
    5320:	2b00      	cmp	r3, #0
    5322:	d128      	bne.n	5376 <prvCheckTasksWaitingTermination+0x8a>
    5324:	f000 fa18 	bl	5758 <vPortEnterCritical>
    5328:	f240 23c4 	movw	r3, #708	; 0x2c4
    532c:	f2c2 0300 	movt	r3, #8192	; 0x2000
    5330:	68db      	ldr	r3, [r3, #12]
    5332:	68db      	ldr	r3, [r3, #12]
    5334:	603b      	str	r3, [r7, #0]
    5336:	683b      	ldr	r3, [r7, #0]
    5338:	3304      	adds	r3, #4
    533a:	4618      	mov	r0, r3
    533c:	f7fe fc5a 	bl	3bf4 <vListRemove>
    5340:	f240 23f0 	movw	r3, #752	; 0x2f0
    5344:	f2c2 0300 	movt	r3, #8192	; 0x2000
    5348:	681b      	ldr	r3, [r3, #0]
    534a:	1e5a      	subs	r2, r3, #1
    534c:	f240 23f0 	movw	r3, #752	; 0x2f0
    5350:	f2c2 0300 	movt	r3, #8192	; 0x2000
    5354:	601a      	str	r2, [r3, #0]
    5356:	f240 23d8 	movw	r3, #728	; 0x2d8
    535a:	f2c2 0300 	movt	r3, #8192	; 0x2000
    535e:	681b      	ldr	r3, [r3, #0]
    5360:	1e5a      	subs	r2, r3, #1
    5362:	f240 23d8 	movw	r3, #728	; 0x2d8
    5366:	f2c2 0300 	movt	r3, #8192	; 0x2000
    536a:	601a      	str	r2, [r3, #0]
    536c:	f000 fa0a 	bl	5784 <vPortExitCritical>
    5370:	6838      	ldr	r0, [r7, #0]
    5372:	f000 f879 	bl	5468 <prvDeleteTCB>
    5376:	3708      	adds	r7, #8
    5378:	46bd      	mov	sp, r7
    537a:	bd80      	pop	{r7, pc}

0000537c <prvAddCurrentTaskToDelayedList>:
    537c:	b580      	push	{r7, lr}
    537e:	b082      	sub	sp, #8
    5380:	af00      	add	r7, sp, #0
    5382:	6078      	str	r0, [r7, #4]
    5384:	f240 03ec 	movw	r3, #236	; 0xec
    5388:	f2c2 0300 	movt	r3, #8192	; 0x2000
    538c:	681b      	ldr	r3, [r3, #0]
    538e:	687a      	ldr	r2, [r7, #4]
    5390:	605a      	str	r2, [r3, #4]
    5392:	f240 23f4 	movw	r3, #756	; 0x2f4
    5396:	f2c2 0300 	movt	r3, #8192	; 0x2000
    539a:	681b      	ldr	r3, [r3, #0]
    539c:	687a      	ldr	r2, [r7, #4]
    539e:	429a      	cmp	r2, r3
    53a0:	d20f      	bcs.n	53c2 <prvAddCurrentTaskToDelayedList+0x46>
    53a2:	f240 23ac 	movw	r3, #684	; 0x2ac
    53a6:	f2c2 0300 	movt	r3, #8192	; 0x2000
    53aa:	681a      	ldr	r2, [r3, #0]
    53ac:	f240 03ec 	movw	r3, #236	; 0xec
    53b0:	f2c2 0300 	movt	r3, #8192	; 0x2000
    53b4:	681b      	ldr	r3, [r3, #0]
    53b6:	3304      	adds	r3, #4
    53b8:	4610      	mov	r0, r2
    53ba:	4619      	mov	r1, r3
    53bc:	f7fe fbe2 	bl	3b84 <vListInsert>
    53c0:	e01c      	b.n	53fc <prvAddCurrentTaskToDelayedList+0x80>
    53c2:	f240 23a8 	movw	r3, #680	; 0x2a8
    53c6:	f2c2 0300 	movt	r3, #8192	; 0x2000
    53ca:	681a      	ldr	r2, [r3, #0]
    53cc:	f240 03ec 	movw	r3, #236	; 0xec
    53d0:	f2c2 0300 	movt	r3, #8192	; 0x2000
    53d4:	681b      	ldr	r3, [r3, #0]
    53d6:	3304      	adds	r3, #4
    53d8:	4610      	mov	r0, r2
    53da:	4619      	mov	r1, r3
    53dc:	f7fe fbd2 	bl	3b84 <vListInsert>
    53e0:	f240 032c 	movw	r3, #44	; 0x2c
    53e4:	f2c2 0300 	movt	r3, #8192	; 0x2000
    53e8:	681b      	ldr	r3, [r3, #0]
    53ea:	687a      	ldr	r2, [r7, #4]
    53ec:	429a      	cmp	r2, r3
    53ee:	d205      	bcs.n	53fc <prvAddCurrentTaskToDelayedList+0x80>
    53f0:	f240 032c 	movw	r3, #44	; 0x2c
    53f4:	f2c2 0300 	movt	r3, #8192	; 0x2000
    53f8:	687a      	ldr	r2, [r7, #4]
    53fa:	601a      	str	r2, [r3, #0]
    53fc:	3708      	adds	r7, #8
    53fe:	46bd      	mov	sp, r7
    5400:	bd80      	pop	{r7, pc}
    5402:	bf00      	nop

00005404 <prvAllocateTCBAndStack>:
    5404:	b580      	push	{r7, lr}
    5406:	b084      	sub	sp, #16
    5408:	af00      	add	r7, sp, #0
    540a:	4603      	mov	r3, r0
    540c:	6039      	str	r1, [r7, #0]
    540e:	80fb      	strh	r3, [r7, #6]
    5410:	2050      	movs	r0, #80	; 0x50
    5412:	f000 fa1b 	bl	584c <pvPortMalloc>
    5416:	60f8      	str	r0, [r7, #12]
    5418:	68fb      	ldr	r3, [r7, #12]
    541a:	2b00      	cmp	r3, #0
    541c:	d01f      	beq.n	545e <prvAllocateTCBAndStack+0x5a>
    541e:	683b      	ldr	r3, [r7, #0]
    5420:	2b00      	cmp	r3, #0
    5422:	d106      	bne.n	5432 <prvAllocateTCBAndStack+0x2e>
    5424:	88fb      	ldrh	r3, [r7, #6]
    5426:	009b      	lsls	r3, r3, #2
    5428:	4618      	mov	r0, r3
    542a:	f000 fa0f 	bl	584c <pvPortMalloc>
    542e:	4603      	mov	r3, r0
    5430:	e000      	b.n	5434 <prvAllocateTCBAndStack+0x30>
    5432:	683b      	ldr	r3, [r7, #0]
    5434:	68fa      	ldr	r2, [r7, #12]
    5436:	6313      	str	r3, [r2, #48]	; 0x30
    5438:	68fb      	ldr	r3, [r7, #12]
    543a:	6b1b      	ldr	r3, [r3, #48]	; 0x30
    543c:	2b00      	cmp	r3, #0
    543e:	d105      	bne.n	544c <prvAllocateTCBAndStack+0x48>
    5440:	68f8      	ldr	r0, [r7, #12]
    5442:	f000 fac7 	bl	59d4 <vPortFree>
    5446:	2300      	movs	r3, #0
    5448:	60fb      	str	r3, [r7, #12]
    544a:	e008      	b.n	545e <prvAllocateTCBAndStack+0x5a>
    544c:	68fb      	ldr	r3, [r7, #12]
    544e:	6b1a      	ldr	r2, [r3, #48]	; 0x30
    5450:	88fb      	ldrh	r3, [r7, #6]
    5452:	009b      	lsls	r3, r3, #2
    5454:	4610      	mov	r0, r2
    5456:	21a5      	movs	r1, #165	; 0xa5
    5458:	461a      	mov	r2, r3
    545a:	f000 fdfd 	bl	6058 <memset>
    545e:	68fb      	ldr	r3, [r7, #12]
    5460:	4618      	mov	r0, r3
    5462:	3710      	adds	r7, #16
    5464:	46bd      	mov	sp, r7
    5466:	bd80      	pop	{r7, pc}

00005468 <prvDeleteTCB>:
    5468:	b580      	push	{r7, lr}
    546a:	b082      	sub	sp, #8
    546c:	af00      	add	r7, sp, #0
    546e:	6078      	str	r0, [r7, #4]
    5470:	687b      	ldr	r3, [r7, #4]
    5472:	6b1b      	ldr	r3, [r3, #48]	; 0x30
    5474:	4618      	mov	r0, r3
    5476:	f000 faad 	bl	59d4 <vPortFree>
    547a:	6878      	ldr	r0, [r7, #4]
    547c:	f000 faaa 	bl	59d4 <vPortFree>
    5480:	3708      	adds	r7, #8
    5482:	46bd      	mov	sp, r7
    5484:	bd80      	pop	{r7, pc}
    5486:	bf00      	nop

00005488 <xTaskGetCurrentTaskHandle>:
    5488:	b480      	push	{r7}
    548a:	b083      	sub	sp, #12
    548c:	af00      	add	r7, sp, #0
    548e:	f240 03ec 	movw	r3, #236	; 0xec
    5492:	f2c2 0300 	movt	r3, #8192	; 0x2000
    5496:	681b      	ldr	r3, [r3, #0]
    5498:	607b      	str	r3, [r7, #4]
    549a:	687b      	ldr	r3, [r7, #4]
    549c:	4618      	mov	r0, r3
    549e:	370c      	adds	r7, #12
    54a0:	46bd      	mov	sp, r7
    54a2:	f85d 7b04 	ldr.w	r7, [sp], #4
    54a6:	4770      	bx	lr

000054a8 <vTaskPriorityInherit>:
    54a8:	b580      	push	{r7, lr}
    54aa:	b084      	sub	sp, #16
    54ac:	af00      	add	r7, sp, #0
    54ae:	6078      	str	r0, [r7, #4]
    54b0:	687b      	ldr	r3, [r7, #4]
    54b2:	60fb      	str	r3, [r7, #12]
    54b4:	68fb      	ldr	r3, [r7, #12]
    54b6:	6ada      	ldr	r2, [r3, #44]	; 0x2c
    54b8:	f240 03ec 	movw	r3, #236	; 0xec
    54bc:	f2c2 0300 	movt	r3, #8192	; 0x2000
    54c0:	681b      	ldr	r3, [r3, #0]
    54c2:	6adb      	ldr	r3, [r3, #44]	; 0x2c
    54c4:	429a      	cmp	r2, r3
    54c6:	d24f      	bcs.n	5568 <vTaskPriorityInherit+0xc0>
    54c8:	f240 03ec 	movw	r3, #236	; 0xec
    54cc:	f2c2 0300 	movt	r3, #8192	; 0x2000
    54d0:	681b      	ldr	r3, [r3, #0]
    54d2:	6adb      	ldr	r3, [r3, #44]	; 0x2c
    54d4:	f1c3 0214 	rsb	r2, r3, #20
    54d8:	68fb      	ldr	r3, [r7, #12]
    54da:	619a      	str	r2, [r3, #24]
    54dc:	68fb      	ldr	r3, [r7, #12]
    54de:	6959      	ldr	r1, [r3, #20]
    54e0:	68fb      	ldr	r3, [r7, #12]
    54e2:	6ada      	ldr	r2, [r3, #44]	; 0x2c
    54e4:	4613      	mov	r3, r2
    54e6:	009b      	lsls	r3, r3, #2
    54e8:	4413      	add	r3, r2
    54ea:	009b      	lsls	r3, r3, #2
    54ec:	f240 02f0 	movw	r2, #240	; 0xf0
    54f0:	f2c2 0200 	movt	r2, #8192	; 0x2000
    54f4:	4413      	add	r3, r2
    54f6:	4299      	cmp	r1, r3
    54f8:	d12e      	bne.n	5558 <vTaskPriorityInherit+0xb0>
    54fa:	68fb      	ldr	r3, [r7, #12]
    54fc:	3304      	adds	r3, #4
    54fe:	4618      	mov	r0, r3
    5500:	f7fe fb78 	bl	3bf4 <vListRemove>
    5504:	f240 03ec 	movw	r3, #236	; 0xec
    5508:	f2c2 0300 	movt	r3, #8192	; 0x2000
    550c:	681b      	ldr	r3, [r3, #0]
    550e:	6ada      	ldr	r2, [r3, #44]	; 0x2c
    5510:	68fb      	ldr	r3, [r7, #12]
    5512:	62da      	str	r2, [r3, #44]	; 0x2c
    5514:	68fb      	ldr	r3, [r7, #12]
    5516:	6ada      	ldr	r2, [r3, #44]	; 0x2c
    5518:	f240 23fc 	movw	r3, #764	; 0x2fc
    551c:	f2c2 0300 	movt	r3, #8192	; 0x2000
    5520:	681b      	ldr	r3, [r3, #0]
    5522:	429a      	cmp	r2, r3
    5524:	d906      	bls.n	5534 <vTaskPriorityInherit+0x8c>
    5526:	68fb      	ldr	r3, [r7, #12]
    5528:	6ada      	ldr	r2, [r3, #44]	; 0x2c
    552a:	f240 23fc 	movw	r3, #764	; 0x2fc
    552e:	f2c2 0300 	movt	r3, #8192	; 0x2000
    5532:	601a      	str	r2, [r3, #0]
    5534:	68fb      	ldr	r3, [r7, #12]
    5536:	6ada      	ldr	r2, [r3, #44]	; 0x2c
    5538:	4613      	mov	r3, r2
    553a:	009b      	lsls	r3, r3, #2
    553c:	4413      	add	r3, r2
    553e:	009b      	lsls	r3, r3, #2
    5540:	f240 02f0 	movw	r2, #240	; 0xf0
    5544:	f2c2 0200 	movt	r2, #8192	; 0x2000
    5548:	441a      	add	r2, r3
    554a:	68fb      	ldr	r3, [r7, #12]
    554c:	3304      	adds	r3, #4
    554e:	4610      	mov	r0, r2
    5550:	4619      	mov	r1, r3
    5552:	f7fe faef 	bl	3b34 <vListInsertEnd>
    5556:	e007      	b.n	5568 <vTaskPriorityInherit+0xc0>
    5558:	f240 03ec 	movw	r3, #236	; 0xec
    555c:	f2c2 0300 	movt	r3, #8192	; 0x2000
    5560:	681b      	ldr	r3, [r3, #0]
    5562:	6ada      	ldr	r2, [r3, #44]	; 0x2c
    5564:	68fb      	ldr	r3, [r7, #12]
    5566:	62da      	str	r2, [r3, #44]	; 0x2c
    5568:	3710      	adds	r7, #16
    556a:	46bd      	mov	sp, r7
    556c:	bd80      	pop	{r7, pc}
    556e:	bf00      	nop

00005570 <vTaskPriorityDisinherit>:
    5570:	b580      	push	{r7, lr}
    5572:	b084      	sub	sp, #16
    5574:	af00      	add	r7, sp, #0
    5576:	6078      	str	r0, [r7, #4]
    5578:	687b      	ldr	r3, [r7, #4]
    557a:	60fb      	str	r3, [r7, #12]
    557c:	687b      	ldr	r3, [r7, #4]
    557e:	2b00      	cmp	r3, #0
    5580:	d035      	beq.n	55ee <vTaskPriorityDisinherit+0x7e>
    5582:	68fb      	ldr	r3, [r7, #12]
    5584:	6ada      	ldr	r2, [r3, #44]	; 0x2c
    5586:	68fb      	ldr	r3, [r7, #12]
    5588:	6cdb      	ldr	r3, [r3, #76]	; 0x4c
    558a:	429a      	cmp	r2, r3
    558c:	d02f      	beq.n	55ee <vTaskPriorityDisinherit+0x7e>
    558e:	68fb      	ldr	r3, [r7, #12]
    5590:	3304      	adds	r3, #4
    5592:	4618      	mov	r0, r3
    5594:	f7fe fb2e 	bl	3bf4 <vListRemove>
    5598:	68fb      	ldr	r3, [r7, #12]
    559a:	6cda      	ldr	r2, [r3, #76]	; 0x4c
    559c:	68fb      	ldr	r3, [r7, #12]
    559e:	62da      	str	r2, [r3, #44]	; 0x2c
    55a0:	68fb      	ldr	r3, [r7, #12]
    55a2:	6adb      	ldr	r3, [r3, #44]	; 0x2c
    55a4:	f1c3 0214 	rsb	r2, r3, #20
    55a8:	68fb      	ldr	r3, [r7, #12]
    55aa:	619a      	str	r2, [r3, #24]
    55ac:	68fb      	ldr	r3, [r7, #12]
    55ae:	6ada      	ldr	r2, [r3, #44]	; 0x2c
    55b0:	f240 23fc 	movw	r3, #764	; 0x2fc
    55b4:	f2c2 0300 	movt	r3, #8192	; 0x2000
    55b8:	681b      	ldr	r3, [r3, #0]
    55ba:	429a      	cmp	r2, r3
    55bc:	d906      	bls.n	55cc <vTaskPriorityDisinherit+0x5c>
    55be:	68fb      	ldr	r3, [r7, #12]
    55c0:	6ada      	ldr	r2, [r3, #44]	; 0x2c
    55c2:	f240 23fc 	movw	r3, #764	; 0x2fc
    55c6:	f2c2 0300 	movt	r3, #8192	; 0x2000
    55ca:	601a      	str	r2, [r3, #0]
    55cc:	68fb      	ldr	r3, [r7, #12]
    55ce:	6ada      	ldr	r2, [r3, #44]	; 0x2c
    55d0:	4613      	mov	r3, r2
    55d2:	009b      	lsls	r3, r3, #2
    55d4:	4413      	add	r3, r2
    55d6:	009b      	lsls	r3, r3, #2
    55d8:	f240 02f0 	movw	r2, #240	; 0xf0
    55dc:	f2c2 0200 	movt	r2, #8192	; 0x2000
    55e0:	441a      	add	r2, r3
    55e2:	68fb      	ldr	r3, [r7, #12]
    55e4:	3304      	adds	r3, #4
    55e6:	4610      	mov	r0, r2
    55e8:	4619      	mov	r1, r3
    55ea:	f7fe faa3 	bl	3b34 <vListInsertEnd>
    55ee:	3710      	adds	r7, #16
    55f0:	46bd      	mov	sp, r7
    55f2:	bd80      	pop	{r7, pc}

000055f4 <xTaskGetxStartTime>:
    55f4:	b480      	push	{r7}
    55f6:	b083      	sub	sp, #12
    55f8:	af00      	add	r7, sp, #0
    55fa:	6078      	str	r0, [r7, #4]
    55fc:	687b      	ldr	r3, [r7, #4]
    55fe:	6c5b      	ldr	r3, [r3, #68]	; 0x44
    5600:	4618      	mov	r0, r3
    5602:	370c      	adds	r7, #12
    5604:	46bd      	mov	sp, r7
    5606:	f85d 7b04 	ldr.w	r7, [sp], #4
    560a:	4770      	bx	lr

0000560c <xTaskGetxLet>:
    560c:	b480      	push	{r7}
    560e:	b083      	sub	sp, #12
    5610:	af00      	add	r7, sp, #0
    5612:	6078      	str	r0, [r7, #4]
    5614:	687b      	ldr	r3, [r7, #4]
    5616:	6c9b      	ldr	r3, [r3, #72]	; 0x48
    5618:	4618      	mov	r0, r3
    561a:	370c      	adds	r7, #12
    561c:	46bd      	mov	sp, r7
    561e:	f85d 7b04 	ldr.w	r7, [sp], #4
    5622:	4770      	bx	lr

00005624 <vTaskSetxStartTime>:
    5624:	b480      	push	{r7}
    5626:	b083      	sub	sp, #12
    5628:	af00      	add	r7, sp, #0
    562a:	6078      	str	r0, [r7, #4]
    562c:	6039      	str	r1, [r7, #0]
    562e:	687b      	ldr	r3, [r7, #4]
    5630:	683a      	ldr	r2, [r7, #0]
    5632:	645a      	str	r2, [r3, #68]	; 0x44
    5634:	370c      	adds	r7, #12
    5636:	46bd      	mov	sp, r7
    5638:	f85d 7b04 	ldr.w	r7, [sp], #4
    563c:	4770      	bx	lr
    563e:	bf00      	nop

00005640 <vTaskSetxLet>:
    5640:	b480      	push	{r7}
    5642:	b083      	sub	sp, #12
    5644:	af00      	add	r7, sp, #0
    5646:	6078      	str	r0, [r7, #4]
    5648:	6039      	str	r1, [r7, #0]
    564a:	687b      	ldr	r3, [r7, #4]
    564c:	683a      	ldr	r2, [r7, #0]
    564e:	649a      	str	r2, [r3, #72]	; 0x48
    5650:	370c      	adds	r7, #12
    5652:	46bd      	mov	sp, r7
    5654:	f85d 7b04 	ldr.w	r7, [sp], #4
    5658:	4770      	bx	lr
    565a:	bf00      	nop

0000565c <pxPortInitialiseStack>:
    565c:	b480      	push	{r7}
    565e:	b085      	sub	sp, #20
    5660:	af00      	add	r7, sp, #0
    5662:	60f8      	str	r0, [r7, #12]
    5664:	60b9      	str	r1, [r7, #8]
    5666:	607a      	str	r2, [r7, #4]
    5668:	68fb      	ldr	r3, [r7, #12]
    566a:	3b04      	subs	r3, #4
    566c:	60fb      	str	r3, [r7, #12]
    566e:	68fb      	ldr	r3, [r7, #12]
    5670:	f04f 7280 	mov.w	r2, #16777216	; 0x1000000
    5674:	601a      	str	r2, [r3, #0]
    5676:	68fb      	ldr	r3, [r7, #12]
    5678:	3b04      	subs	r3, #4
    567a:	60fb      	str	r3, [r7, #12]
    567c:	68ba      	ldr	r2, [r7, #8]
    567e:	68fb      	ldr	r3, [r7, #12]
    5680:	601a      	str	r2, [r3, #0]
    5682:	68fb      	ldr	r3, [r7, #12]
    5684:	3b04      	subs	r3, #4
    5686:	60fb      	str	r3, [r7, #12]
    5688:	68fb      	ldr	r3, [r7, #12]
    568a:	2200      	movs	r2, #0
    568c:	601a      	str	r2, [r3, #0]
    568e:	68fb      	ldr	r3, [r7, #12]
    5690:	3b14      	subs	r3, #20
    5692:	60fb      	str	r3, [r7, #12]
    5694:	687a      	ldr	r2, [r7, #4]
    5696:	68fb      	ldr	r3, [r7, #12]
    5698:	601a      	str	r2, [r3, #0]
    569a:	68fb      	ldr	r3, [r7, #12]
    569c:	3b20      	subs	r3, #32
    569e:	60fb      	str	r3, [r7, #12]
    56a0:	68fb      	ldr	r3, [r7, #12]
    56a2:	4618      	mov	r0, r3
    56a4:	3714      	adds	r7, #20
    56a6:	46bd      	mov	sp, r7
    56a8:	f85d 7b04 	ldr.w	r7, [sp], #4
    56ac:	4770      	bx	lr
    56ae:	bf00      	nop

000056b0 <SVC_Handler>:
    56b0:	4b06      	ldr	r3, [pc, #24]	; (56cc <pxCurrentTCBConst2>)
    56b2:	6819      	ldr	r1, [r3, #0]
    56b4:	6808      	ldr	r0, [r1, #0]
    56b6:	e8b0 0ff0 	ldmia.w	r0!, {r4, r5, r6, r7, r8, r9, sl, fp}
    56ba:	f380 8809 	msr	PSP, r0
    56be:	f04f 0000 	mov.w	r0, #0
    56c2:	f380 8811 	msr	BASEPRI, r0
    56c6:	f04e 0e0d 	orr.w	lr, lr, #13
    56ca:	4770      	bx	lr

000056cc <pxCurrentTCBConst2>:
    56cc:	200000ec 	.word	0x200000ec

000056d0 <prvPortStartFirstTask>:
    56d0:	485d      	ldr	r0, [pc, #372]	; (5848 <prvSetupTimerInterrupt+0x2c>)
    56d2:	6800      	ldr	r0, [r0, #0]
    56d4:	6800      	ldr	r0, [r0, #0]
    56d6:	f380 8808 	msr	MSP, r0
    56da:	b662      	cpsie	i
    56dc:	df00      	svc	0
    56de:	bf00      	nop

000056e0 <xPortStartScheduler>:
    56e0:	b580      	push	{r7, lr}
    56e2:	af00      	add	r7, sp, #0
    56e4:	f64e 5320 	movw	r3, #60704	; 0xed20
    56e8:	f2ce 0300 	movt	r3, #57344	; 0xe000
    56ec:	f64e 5220 	movw	r2, #60704	; 0xed20
    56f0:	f2ce 0200 	movt	r2, #57344	; 0xe000
    56f4:	6812      	ldr	r2, [r2, #0]
    56f6:	f442 02fe 	orr.w	r2, r2, #8323072	; 0x7f0000
    56fa:	601a      	str	r2, [r3, #0]
    56fc:	f64e 5320 	movw	r3, #60704	; 0xed20
    5700:	f2ce 0300 	movt	r3, #57344	; 0xe000
    5704:	f64e 5220 	movw	r2, #60704	; 0xed20
    5708:	f2ce 0200 	movt	r2, #57344	; 0xe000
    570c:	6812      	ldr	r2, [r2, #0]
    570e:	f042 42fe 	orr.w	r2, r2, #2130706432	; 0x7f000000
    5712:	601a      	str	r2, [r3, #0]
    5714:	f000 f882 	bl	581c <prvSetupTimerInterrupt>
    5718:	f240 0330 	movw	r3, #48	; 0x30
    571c:	f2c2 0300 	movt	r3, #8192	; 0x2000
    5720:	2200      	movs	r2, #0
    5722:	601a      	str	r2, [r3, #0]
    5724:	f7ff ffd4 	bl	56d0 <prvPortStartFirstTask>
    5728:	2300      	movs	r3, #0
    572a:	4618      	mov	r0, r3
    572c:	bd80      	pop	{r7, pc}
    572e:	bf00      	nop

00005730 <vPortEndScheduler>:
    5730:	b480      	push	{r7}
    5732:	af00      	add	r7, sp, #0
    5734:	46bd      	mov	sp, r7
    5736:	f85d 7b04 	ldr.w	r7, [sp], #4
    573a:	4770      	bx	lr

0000573c <vPortYieldFromISR>:
    573c:	b480      	push	{r7}
    573e:	af00      	add	r7, sp, #0
    5740:	f64e 5304 	movw	r3, #60676	; 0xed04
    5744:	f2ce 0300 	movt	r3, #57344	; 0xe000
    5748:	f04f 5280 	mov.w	r2, #268435456	; 0x10000000
    574c:	601a      	str	r2, [r3, #0]
    574e:	46bd      	mov	sp, r7
    5750:	f85d 7b04 	ldr.w	r7, [sp], #4
    5754:	4770      	bx	lr
    5756:	bf00      	nop

00005758 <vPortEnterCritical>:
    5758:	b480      	push	{r7}
    575a:	af00      	add	r7, sp, #0
    575c:	f04f 00bf 	mov.w	r0, #191	; 0xbf
    5760:	f380 8811 	msr	BASEPRI, r0
    5764:	f240 0330 	movw	r3, #48	; 0x30
    5768:	f2c2 0300 	movt	r3, #8192	; 0x2000
    576c:	681b      	ldr	r3, [r3, #0]
    576e:	1c5a      	adds	r2, r3, #1
    5770:	f240 0330 	movw	r3, #48	; 0x30
    5774:	f2c2 0300 	movt	r3, #8192	; 0x2000
    5778:	601a      	str	r2, [r3, #0]
    577a:	46bd      	mov	sp, r7
    577c:	f85d 7b04 	ldr.w	r7, [sp], #4
    5780:	4770      	bx	lr
    5782:	bf00      	nop

00005784 <vPortExitCritical>:
    5784:	b480      	push	{r7}
    5786:	af00      	add	r7, sp, #0
    5788:	f240 0330 	movw	r3, #48	; 0x30
    578c:	f2c2 0300 	movt	r3, #8192	; 0x2000
    5790:	681b      	ldr	r3, [r3, #0]
    5792:	1e5a      	subs	r2, r3, #1
    5794:	f240 0330 	movw	r3, #48	; 0x30
    5798:	f2c2 0300 	movt	r3, #8192	; 0x2000
    579c:	601a      	str	r2, [r3, #0]
    579e:	f240 0330 	movw	r3, #48	; 0x30
    57a2:	f2c2 0300 	movt	r3, #8192	; 0x2000
    57a6:	681b      	ldr	r3, [r3, #0]
    57a8:	2b00      	cmp	r3, #0
    57aa:	d103      	bne.n	57b4 <vPortExitCritical+0x30>
    57ac:	f04f 0000 	mov.w	r0, #0
    57b0:	f380 8811 	msr	BASEPRI, r0
    57b4:	46bd      	mov	sp, r7
    57b6:	f85d 7b04 	ldr.w	r7, [sp], #4
    57ba:	4770      	bx	lr

000057bc <PendSV_Handler>:
    57bc:	f3ef 8009 	mrs	r0, PSP
    57c0:	4b0c      	ldr	r3, [pc, #48]	; (57f4 <pxCurrentTCBConst>)
    57c2:	681a      	ldr	r2, [r3, #0]
    57c4:	e920 0ff0 	stmdb	r0!, {r4, r5, r6, r7, r8, r9, sl, fp}
    57c8:	6010      	str	r0, [r2, #0]
    57ca:	e92d 4008 	stmdb	sp!, {r3, lr}
    57ce:	f04f 00bf 	mov.w	r0, #191	; 0xbf
    57d2:	f380 8811 	msr	BASEPRI, r0
    57d6:	f7ff fba1 	bl	4f1c <vTaskSwitchContext>
    57da:	f04f 0000 	mov.w	r0, #0
    57de:	f380 8811 	msr	BASEPRI, r0
    57e2:	e8bd 4008 	ldmia.w	sp!, {r3, lr}
    57e6:	6819      	ldr	r1, [r3, #0]
    57e8:	6808      	ldr	r0, [r1, #0]
    57ea:	e8b0 0ff0 	ldmia.w	r0!, {r4, r5, r6, r7, r8, r9, sl, fp}
    57ee:	f380 8809 	msr	PSP, r0
    57f2:	4770      	bx	lr

000057f4 <pxCurrentTCBConst>:
    57f4:	200000ec 	.word	0x200000ec

000057f8 <SysTick_Handler>:
    57f8:	b580      	push	{r7, lr}
    57fa:	b082      	sub	sp, #8
    57fc:	af00      	add	r7, sp, #0
    57fe:	2300      	movs	r3, #0
    5800:	607b      	str	r3, [r7, #4]
    5802:	f04f 00bf 	mov.w	r0, #191	; 0xbf
    5806:	f380 8811 	msr	BASEPRI, r0
    580a:	f7ff faa9 	bl	4d60 <vTaskIncrementTick>
    580e:	f04f 0000 	mov.w	r0, #0
    5812:	f380 8811 	msr	BASEPRI, r0
    5816:	3708      	adds	r7, #8
    5818:	46bd      	mov	sp, r7
    581a:	bd80      	pop	{r7, pc}

0000581c <prvSetupTimerInterrupt>:
    581c:	b480      	push	{r7}
    581e:	af00      	add	r7, sp, #0
    5820:	f24e 0314 	movw	r3, #57364	; 0xe014
    5824:	f2ce 0300 	movt	r3, #57344	; 0xe000
    5828:	f641 123f 	movw	r2, #6463	; 0x193f
    582c:	f2c0 0201 	movt	r2, #1
    5830:	601a      	str	r2, [r3, #0]
    5832:	f24e 0310 	movw	r3, #57360	; 0xe010
    5836:	f2ce 0300 	movt	r3, #57344	; 0xe000
    583a:	2207      	movs	r2, #7
    583c:	601a      	str	r2, [r3, #0]
    583e:	46bd      	mov	sp, r7
    5840:	f85d 7b04 	ldr.w	r7, [sp], #4
    5844:	4770      	bx	lr
    5846:	0000      	.short	0x0000
    5848:	e000ed08 	.word	0xe000ed08

0000584c <pvPortMalloc>:
    584c:	b580      	push	{r7, lr}
    584e:	b08a      	sub	sp, #40	; 0x28
    5850:	af00      	add	r7, sp, #0
    5852:	6078      	str	r0, [r7, #4]
    5854:	2300      	movs	r3, #0
    5856:	61fb      	str	r3, [r7, #28]
    5858:	f7ff f9a0 	bl	4b9c <vTaskSuspendAll>
    585c:	f642 7328 	movw	r3, #12072	; 0x2f28
    5860:	f2c2 0301 	movt	r3, #8193	; 0x2001
    5864:	681b      	ldr	r3, [r3, #0]
    5866:	2b00      	cmp	r3, #0
    5868:	d130      	bne.n	58cc <pvPortMalloc+0x80>
    586a:	f642 7318 	movw	r3, #12056	; 0x2f18
    586e:	f2c2 0301 	movt	r3, #8193	; 0x2001
    5872:	f240 3218 	movw	r2, #792	; 0x318
    5876:	f2c2 0200 	movt	r2, #8192	; 0x2000
    587a:	601a      	str	r2, [r3, #0]
    587c:	f642 7318 	movw	r3, #12056	; 0x2f18
    5880:	f2c2 0301 	movt	r3, #8193	; 0x2001
    5884:	2200      	movs	r2, #0
    5886:	605a      	str	r2, [r3, #4]
    5888:	f642 7320 	movw	r3, #12064	; 0x2f20
    588c:	f2c2 0301 	movt	r3, #8193	; 0x2001
    5890:	f44f 3296 	mov.w	r2, #76800	; 0x12c00
    5894:	605a      	str	r2, [r3, #4]
    5896:	f642 7320 	movw	r3, #12064	; 0x2f20
    589a:	f2c2 0301 	movt	r3, #8193	; 0x2001
    589e:	2200      	movs	r2, #0
    58a0:	601a      	str	r2, [r3, #0]
    58a2:	f240 3318 	movw	r3, #792	; 0x318
    58a6:	f2c2 0300 	movt	r3, #8192	; 0x2000
    58aa:	617b      	str	r3, [r7, #20]
    58ac:	697b      	ldr	r3, [r7, #20]
    58ae:	f44f 3296 	mov.w	r2, #76800	; 0x12c00
    58b2:	605a      	str	r2, [r3, #4]
    58b4:	697a      	ldr	r2, [r7, #20]
    58b6:	f642 7320 	movw	r3, #12064	; 0x2f20
    58ba:	f2c2 0301 	movt	r3, #8193	; 0x2001
    58be:	6013      	str	r3, [r2, #0]
    58c0:	f642 7328 	movw	r3, #12072	; 0x2f28
    58c4:	f2c2 0301 	movt	r3, #8193	; 0x2001
    58c8:	2201      	movs	r2, #1
    58ca:	601a      	str	r2, [r3, #0]
    58cc:	687b      	ldr	r3, [r7, #4]
    58ce:	2b00      	cmp	r3, #0
    58d0:	d00d      	beq.n	58ee <pvPortMalloc+0xa2>
    58d2:	2310      	movs	r3, #16
    58d4:	687a      	ldr	r2, [r7, #4]
    58d6:	4413      	add	r3, r2
    58d8:	607b      	str	r3, [r7, #4]
    58da:	687b      	ldr	r3, [r7, #4]
    58dc:	f003 0307 	and.w	r3, r3, #7
    58e0:	2b00      	cmp	r3, #0
    58e2:	d004      	beq.n	58ee <pvPortMalloc+0xa2>
    58e4:	687b      	ldr	r3, [r7, #4]
    58e6:	f023 0307 	bic.w	r3, r3, #7
    58ea:	3308      	adds	r3, #8
    58ec:	607b      	str	r3, [r7, #4]
    58ee:	687b      	ldr	r3, [r7, #4]
    58f0:	2b00      	cmp	r3, #0
    58f2:	d068      	beq.n	59c6 <pvPortMalloc+0x17a>
    58f4:	687b      	ldr	r3, [r7, #4]
    58f6:	f5b3 3f96 	cmp.w	r3, #76800	; 0x12c00
    58fa:	d264      	bcs.n	59c6 <pvPortMalloc+0x17a>
    58fc:	f642 7318 	movw	r3, #12056	; 0x2f18
    5900:	f2c2 0301 	movt	r3, #8193	; 0x2001
    5904:	623b      	str	r3, [r7, #32]
    5906:	f642 7318 	movw	r3, #12056	; 0x2f18
    590a:	f2c2 0301 	movt	r3, #8193	; 0x2001
    590e:	681b      	ldr	r3, [r3, #0]
    5910:	627b      	str	r3, [r7, #36]	; 0x24
    5912:	e004      	b.n	591e <pvPortMalloc+0xd2>
    5914:	6a7b      	ldr	r3, [r7, #36]	; 0x24
    5916:	623b      	str	r3, [r7, #32]
    5918:	6a7b      	ldr	r3, [r7, #36]	; 0x24
    591a:	681b      	ldr	r3, [r3, #0]
    591c:	627b      	str	r3, [r7, #36]	; 0x24
    591e:	6a7b      	ldr	r3, [r7, #36]	; 0x24
    5920:	685a      	ldr	r2, [r3, #4]
    5922:	687b      	ldr	r3, [r7, #4]
    5924:	429a      	cmp	r2, r3
    5926:	d203      	bcs.n	5930 <pvPortMalloc+0xe4>
    5928:	6a7b      	ldr	r3, [r7, #36]	; 0x24
    592a:	681b      	ldr	r3, [r3, #0]
    592c:	2b00      	cmp	r3, #0
    592e:	d1f1      	bne.n	5914 <pvPortMalloc+0xc8>
    5930:	6a7a      	ldr	r2, [r7, #36]	; 0x24
    5932:	f642 7320 	movw	r3, #12064	; 0x2f20
    5936:	f2c2 0301 	movt	r3, #8193	; 0x2001
    593a:	429a      	cmp	r2, r3
    593c:	d043      	beq.n	59c6 <pvPortMalloc+0x17a>
    593e:	6a3b      	ldr	r3, [r7, #32]
    5940:	681a      	ldr	r2, [r3, #0]
    5942:	2310      	movs	r3, #16
    5944:	4413      	add	r3, r2
    5946:	61fb      	str	r3, [r7, #28]
    5948:	6a7b      	ldr	r3, [r7, #36]	; 0x24
    594a:	681a      	ldr	r2, [r3, #0]
    594c:	6a3b      	ldr	r3, [r7, #32]
    594e:	601a      	str	r2, [r3, #0]
    5950:	6a7b      	ldr	r3, [r7, #36]	; 0x24
    5952:	685a      	ldr	r2, [r3, #4]
    5954:	687b      	ldr	r3, [r7, #4]
    5956:	1ad2      	subs	r2, r2, r3
    5958:	2310      	movs	r3, #16
    595a:	005b      	lsls	r3, r3, #1
    595c:	429a      	cmp	r2, r3
    595e:	d925      	bls.n	59ac <pvPortMalloc+0x160>
    5960:	6a7a      	ldr	r2, [r7, #36]	; 0x24
    5962:	687b      	ldr	r3, [r7, #4]
    5964:	4413      	add	r3, r2
    5966:	613b      	str	r3, [r7, #16]
    5968:	6a7b      	ldr	r3, [r7, #36]	; 0x24
    596a:	685a      	ldr	r2, [r3, #4]
    596c:	687b      	ldr	r3, [r7, #4]
    596e:	1ad2      	subs	r2, r2, r3
    5970:	693b      	ldr	r3, [r7, #16]
    5972:	605a      	str	r2, [r3, #4]
    5974:	6a7b      	ldr	r3, [r7, #36]	; 0x24
    5976:	687a      	ldr	r2, [r7, #4]
    5978:	605a      	str	r2, [r3, #4]
    597a:	693b      	ldr	r3, [r7, #16]
    597c:	685b      	ldr	r3, [r3, #4]
    597e:	60fb      	str	r3, [r7, #12]
    5980:	f642 7318 	movw	r3, #12056	; 0x2f18
    5984:	f2c2 0301 	movt	r3, #8193	; 0x2001
    5988:	61bb      	str	r3, [r7, #24]
    598a:	e002      	b.n	5992 <pvPortMalloc+0x146>
    598c:	69bb      	ldr	r3, [r7, #24]
    598e:	681b      	ldr	r3, [r3, #0]
    5990:	61bb      	str	r3, [r7, #24]
    5992:	69bb      	ldr	r3, [r7, #24]
    5994:	681b      	ldr	r3, [r3, #0]
    5996:	685a      	ldr	r2, [r3, #4]
    5998:	68fb      	ldr	r3, [r7, #12]
    599a:	429a      	cmp	r2, r3
    599c:	d3f6      	bcc.n	598c <pvPortMalloc+0x140>
    599e:	69bb      	ldr	r3, [r7, #24]
    59a0:	681a      	ldr	r2, [r3, #0]
    59a2:	693b      	ldr	r3, [r7, #16]
    59a4:	601a      	str	r2, [r3, #0]
    59a6:	69bb      	ldr	r3, [r7, #24]
    59a8:	693a      	ldr	r2, [r7, #16]
    59aa:	601a      	str	r2, [r3, #0]
    59ac:	f240 0334 	movw	r3, #52	; 0x34
    59b0:	f2c2 0300 	movt	r3, #8192	; 0x2000
    59b4:	681a      	ldr	r2, [r3, #0]
    59b6:	6a7b      	ldr	r3, [r7, #36]	; 0x24
    59b8:	685b      	ldr	r3, [r3, #4]
    59ba:	1ad2      	subs	r2, r2, r3
    59bc:	f240 0334 	movw	r3, #52	; 0x34
    59c0:	f2c2 0300 	movt	r3, #8192	; 0x2000
    59c4:	601a      	str	r2, [r3, #0]
    59c6:	f7ff f8fb 	bl	4bc0 <xTaskResumeAll>
    59ca:	69fb      	ldr	r3, [r7, #28]
    59cc:	4618      	mov	r0, r3
    59ce:	3728      	adds	r7, #40	; 0x28
    59d0:	46bd      	mov	sp, r7
    59d2:	bd80      	pop	{r7, pc}

000059d4 <vPortFree>:
    59d4:	b580      	push	{r7, lr}
    59d6:	b086      	sub	sp, #24
    59d8:	af00      	add	r7, sp, #0
    59da:	6078      	str	r0, [r7, #4]
    59dc:	687b      	ldr	r3, [r7, #4]
    59de:	613b      	str	r3, [r7, #16]
    59e0:	687b      	ldr	r3, [r7, #4]
    59e2:	2b00      	cmp	r3, #0
    59e4:	d030      	beq.n	5a48 <vPortFree+0x74>
    59e6:	2310      	movs	r3, #16
    59e8:	425b      	negs	r3, r3
    59ea:	693a      	ldr	r2, [r7, #16]
    59ec:	4413      	add	r3, r2
    59ee:	613b      	str	r3, [r7, #16]
    59f0:	693b      	ldr	r3, [r7, #16]
    59f2:	60fb      	str	r3, [r7, #12]
    59f4:	f7ff f8d2 	bl	4b9c <vTaskSuspendAll>
    59f8:	68fb      	ldr	r3, [r7, #12]
    59fa:	685b      	ldr	r3, [r3, #4]
    59fc:	60bb      	str	r3, [r7, #8]
    59fe:	f642 7318 	movw	r3, #12056	; 0x2f18
    5a02:	f2c2 0301 	movt	r3, #8193	; 0x2001
    5a06:	617b      	str	r3, [r7, #20]
    5a08:	e002      	b.n	5a10 <vPortFree+0x3c>
    5a0a:	697b      	ldr	r3, [r7, #20]
    5a0c:	681b      	ldr	r3, [r3, #0]
    5a0e:	617b      	str	r3, [r7, #20]
    5a10:	697b      	ldr	r3, [r7, #20]
    5a12:	681b      	ldr	r3, [r3, #0]
    5a14:	685a      	ldr	r2, [r3, #4]
    5a16:	68bb      	ldr	r3, [r7, #8]
    5a18:	429a      	cmp	r2, r3
    5a1a:	d3f6      	bcc.n	5a0a <vPortFree+0x36>
    5a1c:	697b      	ldr	r3, [r7, #20]
    5a1e:	681a      	ldr	r2, [r3, #0]
    5a20:	68fb      	ldr	r3, [r7, #12]
    5a22:	601a      	str	r2, [r3, #0]
    5a24:	697b      	ldr	r3, [r7, #20]
    5a26:	68fa      	ldr	r2, [r7, #12]
    5a28:	601a      	str	r2, [r3, #0]
    5a2a:	68fb      	ldr	r3, [r7, #12]
    5a2c:	685a      	ldr	r2, [r3, #4]
    5a2e:	f240 0334 	movw	r3, #52	; 0x34
    5a32:	f2c2 0300 	movt	r3, #8192	; 0x2000
    5a36:	681b      	ldr	r3, [r3, #0]
    5a38:	441a      	add	r2, r3
    5a3a:	f240 0334 	movw	r3, #52	; 0x34
    5a3e:	f2c2 0300 	movt	r3, #8192	; 0x2000
    5a42:	601a      	str	r2, [r3, #0]
    5a44:	f7ff f8bc 	bl	4bc0 <xTaskResumeAll>
    5a48:	3718      	adds	r7, #24
    5a4a:	46bd      	mov	sp, r7
    5a4c:	bd80      	pop	{r7, pc}
    5a4e:	bf00      	nop

00005a50 <xPortGetFreeHeapSize>:
    5a50:	b480      	push	{r7}
    5a52:	af00      	add	r7, sp, #0
    5a54:	f240 0334 	movw	r3, #52	; 0x34
    5a58:	f2c2 0300 	movt	r3, #8192	; 0x2000
    5a5c:	681b      	ldr	r3, [r3, #0]
    5a5e:	4618      	mov	r0, r3
    5a60:	46bd      	mov	sp, r7
    5a62:	f85d 7b04 	ldr.w	r7, [sp], #4
    5a66:	4770      	bx	lr

00005a68 <vPortInitialiseBlocks>:
    5a68:	b480      	push	{r7}
    5a6a:	af00      	add	r7, sp, #0
    5a6c:	46bd      	mov	sp, r7
    5a6e:	f85d 7b04 	ldr.w	r7, [sp], #4
    5a72:	4770      	bx	lr

00005a74 <init_led>:
    5a74:	b580      	push	{r7, lr}
    5a76:	b082      	sub	sp, #8
    5a78:	af00      	add	r7, sp, #0
    5a7a:	2010      	movs	r0, #16
    5a7c:	2101      	movs	r1, #1
    5a7e:	f7fb f99f 	bl	dc0 <RCC_APB2PeriphClockCmd>
    5a82:	f44f 5080 	mov.w	r0, #4096	; 0x1000
    5a86:	f2c4 0001 	movt	r0, #16385	; 0x4001
    5a8a:	f44f 5180 	mov.w	r1, #4096	; 0x1000
    5a8e:	2201      	movs	r2, #1
    5a90:	f7fb fca6 	bl	13e0 <GPIO_WriteBit>
    5a94:	f44f 5380 	mov.w	r3, #4096	; 0x1000
    5a98:	80bb      	strh	r3, [r7, #4]
    5a9a:	2310      	movs	r3, #16
    5a9c:	71fb      	strb	r3, [r7, #7]
    5a9e:	2303      	movs	r3, #3
    5aa0:	71bb      	strb	r3, [r7, #6]
    5aa2:	1d3b      	adds	r3, r7, #4
    5aa4:	f44f 5080 	mov.w	r0, #4096	; 0x1000
    5aa8:	f2c4 0001 	movt	r0, #16385	; 0x4001
    5aac:	4619      	mov	r1, r3
    5aae:	f7fb fb5b 	bl	1168 <GPIO_Init>
    5ab2:	3708      	adds	r7, #8
    5ab4:	46bd      	mov	sp, r7
    5ab6:	bd80      	pop	{r7, pc}

00005ab8 <init_button>:
    5ab8:	b580      	push	{r7, lr}
    5aba:	b082      	sub	sp, #8
    5abc:	af00      	add	r7, sp, #0
    5abe:	2004      	movs	r0, #4
    5ac0:	2101      	movs	r1, #1
    5ac2:	f7fb f97d 	bl	dc0 <RCC_APB2PeriphClockCmd>
    5ac6:	2301      	movs	r3, #1
    5ac8:	80bb      	strh	r3, [r7, #4]
    5aca:	2304      	movs	r3, #4
    5acc:	71fb      	strb	r3, [r7, #7]
    5ace:	2303      	movs	r3, #3
    5ad0:	71bb      	strb	r3, [r7, #6]
    5ad2:	1d3b      	adds	r3, r7, #4
    5ad4:	f44f 5080 	mov.w	r0, #4096	; 0x1000
    5ad8:	f2c4 0001 	movt	r0, #16385	; 0x4001
    5adc:	4619      	mov	r1, r3
    5ade:	f7fb fb43 	bl	1168 <GPIO_Init>
    5ae2:	3708      	adds	r7, #8
    5ae4:	46bd      	mov	sp, r7
    5ae6:	bd80      	pop	{r7, pc}

00005ae8 <enable_button_interrupts>:
    5ae8:	b580      	push	{r7, lr}
    5aea:	b084      	sub	sp, #16
    5aec:	af00      	add	r7, sp, #0
    5aee:	2001      	movs	r0, #1
    5af0:	2101      	movs	r1, #1
    5af2:	f7fb f965 	bl	dc0 <RCC_APB2PeriphClockCmd>
    5af6:	2000      	movs	r0, #0
    5af8:	2100      	movs	r1, #0
    5afa:	f7fb fd69 	bl	15d0 <GPIO_EXTILineConfig>
    5afe:	2301      	movs	r3, #1
    5b00:	60bb      	str	r3, [r7, #8]
    5b02:	2300      	movs	r3, #0
    5b04:	733b      	strb	r3, [r7, #12]
    5b06:	2308      	movs	r3, #8
    5b08:	737b      	strb	r3, [r7, #13]
    5b0a:	2301      	movs	r3, #1
    5b0c:	73bb      	strb	r3, [r7, #14]
    5b0e:	f107 0308 	add.w	r3, r7, #8
    5b12:	4618      	mov	r0, r3
    5b14:	f7fc fa62 	bl	1fdc <EXTI_Init>
    5b18:	2306      	movs	r3, #6
    5b1a:	713b      	strb	r3, [r7, #4]
    5b1c:	230f      	movs	r3, #15
    5b1e:	717b      	strb	r3, [r7, #5]
    5b20:	230f      	movs	r3, #15
    5b22:	71bb      	strb	r3, [r7, #6]
    5b24:	2301      	movs	r3, #1
    5b26:	71fb      	strb	r3, [r7, #7]
    5b28:	1d3b      	adds	r3, r7, #4
    5b2a:	4618      	mov	r0, r3
    5b2c:	f7fc fb90 	bl	2250 <NVIC_Init>
    5b30:	3710      	adds	r7, #16
    5b32:	46bd      	mov	sp, r7
    5b34:	bd80      	pop	{r7, pc}
    5b36:	bf00      	nop

00005b38 <init_rs232>:
    5b38:	b580      	push	{r7, lr}
    5b3a:	b086      	sub	sp, #24
    5b3c:	af00      	add	r7, sp, #0
    5b3e:	2005      	movs	r0, #5
    5b40:	2101      	movs	r1, #1
    5b42:	f7fb f93d 	bl	dc0 <RCC_APB2PeriphClockCmd>
    5b46:	f44f 3000 	mov.w	r0, #131072	; 0x20000
    5b4a:	2101      	movs	r1, #1
    5b4c:	f7fb f960 	bl	e10 <RCC_APB1PeriphClockCmd>
    5b50:	2308      	movs	r3, #8
    5b52:	80bb      	strh	r3, [r7, #4]
    5b54:	2304      	movs	r3, #4
    5b56:	71fb      	strb	r3, [r7, #7]
    5b58:	1d3b      	adds	r3, r7, #4
    5b5a:	f44f 6000 	mov.w	r0, #2048	; 0x800
    5b5e:	f2c4 0001 	movt	r0, #16385	; 0x4001
    5b62:	4619      	mov	r1, r3
    5b64:	f7fb fb00 	bl	1168 <GPIO_Init>
    5b68:	2304      	movs	r3, #4
    5b6a:	80bb      	strh	r3, [r7, #4]
    5b6c:	2303      	movs	r3, #3
    5b6e:	71bb      	strb	r3, [r7, #6]
    5b70:	2318      	movs	r3, #24
    5b72:	71fb      	strb	r3, [r7, #7]
    5b74:	1d3b      	adds	r3, r7, #4
    5b76:	f44f 6000 	mov.w	r0, #2048	; 0x800
    5b7a:	f2c4 0001 	movt	r0, #16385	; 0x4001
    5b7e:	4619      	mov	r1, r3
    5b80:	f7fb faf2 	bl	1168 <GPIO_Init>
    5b84:	f44f 5316 	mov.w	r3, #9600	; 0x2580
    5b88:	60bb      	str	r3, [r7, #8]
    5b8a:	2300      	movs	r3, #0
    5b8c:	81bb      	strh	r3, [r7, #12]
    5b8e:	2300      	movs	r3, #0
    5b90:	81fb      	strh	r3, [r7, #14]
    5b92:	2300      	movs	r3, #0
    5b94:	823b      	strh	r3, [r7, #16]
    5b96:	2300      	movs	r3, #0
    5b98:	82bb      	strh	r3, [r7, #20]
    5b9a:	230c      	movs	r3, #12
    5b9c:	827b      	strh	r3, [r7, #18]
    5b9e:	f107 0308 	add.w	r3, r7, #8
    5ba2:	f44f 4088 	mov.w	r0, #17408	; 0x4400
    5ba6:	f2c4 0000 	movt	r0, #16384	; 0x4000
    5baa:	4619      	mov	r1, r3
    5bac:	f7fb fdc4 	bl	1738 <USART_Init>
    5bb0:	f44f 4088 	mov.w	r0, #17408	; 0x4400
    5bb4:	f2c4 0000 	movt	r0, #16384	; 0x4000
    5bb8:	2101      	movs	r1, #1
    5bba:	f7fb fedb 	bl	1974 <USART_Cmd>
    5bbe:	3718      	adds	r7, #24
    5bc0:	46bd      	mov	sp, r7
    5bc2:	bd80      	pop	{r7, pc}

00005bc4 <enable_rs232_interrupts>:
    5bc4:	b580      	push	{r7, lr}
    5bc6:	b082      	sub	sp, #8
    5bc8:	af00      	add	r7, sp, #0
    5bca:	f44f 4088 	mov.w	r0, #17408	; 0x4400
    5bce:	f2c4 0000 	movt	r0, #16384	; 0x4000
    5bd2:	f240 7127 	movw	r1, #1831	; 0x727
    5bd6:	2200      	movs	r2, #0
    5bd8:	f7fb feec 	bl	19b4 <USART_ITConfig>
    5bdc:	f44f 4088 	mov.w	r0, #17408	; 0x4400
    5be0:	f2c4 0000 	movt	r0, #16384	; 0x4000
    5be4:	f240 5125 	movw	r1, #1317	; 0x525
    5be8:	2201      	movs	r2, #1
    5bea:	f7fb fee3 	bl	19b4 <USART_ITConfig>
    5bee:	2326      	movs	r3, #38	; 0x26
    5bf0:	713b      	strb	r3, [r7, #4]
    5bf2:	2300      	movs	r3, #0
    5bf4:	71bb      	strb	r3, [r7, #6]
    5bf6:	2301      	movs	r3, #1
    5bf8:	71fb      	strb	r3, [r7, #7]
    5bfa:	1d3b      	adds	r3, r7, #4
    5bfc:	4618      	mov	r0, r3
    5bfe:	f7fc fb27 	bl	2250 <NVIC_Init>
    5c02:	3708      	adds	r7, #8
    5c04:	46bd      	mov	sp, r7
    5c06:	bd80      	pop	{r7, pc}

00005c08 <enable_rs232>:
    5c08:	b580      	push	{r7, lr}
    5c0a:	af00      	add	r7, sp, #0
    5c0c:	f44f 4088 	mov.w	r0, #17408	; 0x4400
    5c10:	f2c4 0000 	movt	r0, #16384	; 0x4000
    5c14:	2101      	movs	r1, #1
    5c16:	f7fb fead 	bl	1974 <USART_Cmd>
    5c1a:	bd80      	pop	{r7, pc}

00005c1c <send_byte>:
    5c1c:	b580      	push	{r7, lr}
    5c1e:	b082      	sub	sp, #8
    5c20:	af00      	add	r7, sp, #0
    5c22:	4603      	mov	r3, r0
    5c24:	71fb      	strb	r3, [r7, #7]
    5c26:	bf00      	nop
    5c28:	f44f 4088 	mov.w	r0, #17408	; 0x4400
    5c2c:	f2c4 0000 	movt	r0, #16384	; 0x4000
    5c30:	2180      	movs	r1, #128	; 0x80
    5c32:	f7fc f90b 	bl	1e4c <USART_GetFlagStatus>
    5c36:	4603      	mov	r3, r0
    5c38:	2b00      	cmp	r3, #0
    5c3a:	d0f5      	beq.n	5c28 <send_byte+0xc>
    5c3c:	f44f 5380 	mov.w	r3, #4096	; 0x1000
    5c40:	f2c4 0301 	movt	r3, #16385	; 0x4001
    5c44:	f44f 5280 	mov.w	r2, #4096	; 0x1000
    5c48:	f2c4 0201 	movt	r2, #16385	; 0x4001
    5c4c:	68d2      	ldr	r2, [r2, #12]
    5c4e:	f482 5280 	eor.w	r2, r2, #4096	; 0x1000
    5c52:	60da      	str	r2, [r3, #12]
    5c54:	79fb      	ldrb	r3, [r7, #7]
    5c56:	b29b      	uxth	r3, r3
    5c58:	f44f 4088 	mov.w	r0, #17408	; 0x4400
    5c5c:	f2c4 0000 	movt	r0, #16384	; 0x4000
    5c60:	4619      	mov	r1, r3
    5c62:	f7fb ffa7 	bl	1bb4 <USART_SendData>
    5c66:	3708      	adds	r7, #8
    5c68:	46bd      	mov	sp, r7
    5c6a:	bd80      	pop	{r7, pc}

00005c6c <send_num>:
    5c6c:	b580      	push	{r7, lr}
    5c6e:	b082      	sub	sp, #8
    5c70:	af00      	add	r7, sp, #0
    5c72:	4603      	mov	r3, r0
    5c74:	71fb      	strb	r3, [r7, #7]
    5c76:	79fb      	ldrb	r3, [r7, #7]
    5c78:	3330      	adds	r3, #48	; 0x30
    5c7a:	b2db      	uxtb	r3, r3
    5c7c:	4618      	mov	r0, r3
    5c7e:	f7ff ffcd 	bl	5c1c <send_byte>
    5c82:	3708      	adds	r7, #8
    5c84:	46bd      	mov	sp, r7
    5c86:	bd80      	pop	{r7, pc}

00005c88 <vPrintString>:
    5c88:	b580      	push	{r7, lr}
    5c8a:	b084      	sub	sp, #16
    5c8c:	af00      	add	r7, sp, #0
    5c8e:	6078      	str	r0, [r7, #4]
    5c90:	2300      	movs	r3, #0
    5c92:	60fb      	str	r3, [r7, #12]
    5c94:	e009      	b.n	5caa <vPrintString+0x22>
    5c96:	68fb      	ldr	r3, [r7, #12]
    5c98:	687a      	ldr	r2, [r7, #4]
    5c9a:	4413      	add	r3, r2
    5c9c:	781b      	ldrb	r3, [r3, #0]
    5c9e:	4618      	mov	r0, r3
    5ca0:	f7ff ffbc 	bl	5c1c <send_byte>
    5ca4:	68fb      	ldr	r3, [r7, #12]
    5ca6:	3301      	adds	r3, #1
    5ca8:	60fb      	str	r3, [r7, #12]
    5caa:	68fb      	ldr	r3, [r7, #12]
    5cac:	687a      	ldr	r2, [r7, #4]
    5cae:	4413      	add	r3, r2
    5cb0:	781b      	ldrb	r3, [r3, #0]
    5cb2:	2b00      	cmp	r3, #0
    5cb4:	d1ef      	bne.n	5c96 <vPrintString+0xe>
    5cb6:	3710      	adds	r7, #16
    5cb8:	46bd      	mov	sp, r7
    5cba:	bd80      	pop	{r7, pc}

00005cbc <vPrintNumber>:
    5cbc:	b580      	push	{r7, lr}
    5cbe:	b08a      	sub	sp, #40	; 0x28
    5cc0:	af00      	add	r7, sp, #0
    5cc2:	6078      	str	r0, [r7, #4]
    5cc4:	2300      	movs	r3, #0
    5cc6:	623b      	str	r3, [r7, #32]
    5cc8:	687b      	ldr	r3, [r7, #4]
    5cca:	61fb      	str	r3, [r7, #28]
    5ccc:	69fb      	ldr	r3, [r7, #28]
    5cce:	2b00      	cmp	r3, #0
    5cd0:	d106      	bne.n	5ce0 <vPrintNumber+0x24>
    5cd2:	f246 2048 	movw	r0, #25160	; 0x6248
    5cd6:	f2c0 0000 	movt	r0, #0
    5cda:	f7ff ffd5 	bl	5c88 <vPrintString>
    5cde:	e062      	b.n	5da6 <vPrintNumber+0xea>
    5ce0:	e024      	b.n	5d2c <vPrintNumber+0x70>
    5ce2:	69f9      	ldr	r1, [r7, #28]
    5ce4:	f246 6367 	movw	r3, #26215	; 0x6667
    5ce8:	f2c6 6366 	movt	r3, #26214	; 0x6666
    5cec:	fb83 2301 	smull	r2, r3, r3, r1
    5cf0:	109a      	asrs	r2, r3, #2
    5cf2:	17cb      	asrs	r3, r1, #31
    5cf4:	1ad2      	subs	r2, r2, r3
    5cf6:	4613      	mov	r3, r2
    5cf8:	009b      	lsls	r3, r3, #2
    5cfa:	4413      	add	r3, r2
    5cfc:	005b      	lsls	r3, r3, #1
    5cfe:	1aca      	subs	r2, r1, r3
    5d00:	b2d3      	uxtb	r3, r2
    5d02:	3330      	adds	r3, #48	; 0x30
    5d04:	b2da      	uxtb	r2, r3
    5d06:	f107 010c 	add.w	r1, r7, #12
    5d0a:	6a3b      	ldr	r3, [r7, #32]
    5d0c:	440b      	add	r3, r1
    5d0e:	701a      	strb	r2, [r3, #0]
    5d10:	6a3b      	ldr	r3, [r7, #32]
    5d12:	3301      	adds	r3, #1
    5d14:	623b      	str	r3, [r7, #32]
    5d16:	69fa      	ldr	r2, [r7, #28]
    5d18:	f246 6367 	movw	r3, #26215	; 0x6667
    5d1c:	f2c6 6366 	movt	r3, #26214	; 0x6666
    5d20:	fb83 1302 	smull	r1, r3, r3, r2
    5d24:	1099      	asrs	r1, r3, #2
    5d26:	17d3      	asrs	r3, r2, #31
    5d28:	1acb      	subs	r3, r1, r3
    5d2a:	61fb      	str	r3, [r7, #28]
    5d2c:	69fb      	ldr	r3, [r7, #28]
    5d2e:	2b00      	cmp	r3, #0
    5d30:	d1d7      	bne.n	5ce2 <vPrintNumber+0x26>
    5d32:	f107 020c 	add.w	r2, r7, #12
    5d36:	6a3b      	ldr	r3, [r7, #32]
    5d38:	4413      	add	r3, r2
    5d3a:	2200      	movs	r2, #0
    5d3c:	701a      	strb	r2, [r3, #0]
    5d3e:	2300      	movs	r3, #0
    5d40:	627b      	str	r3, [r7, #36]	; 0x24
    5d42:	e020      	b.n	5d86 <vPrintNumber+0xca>
    5d44:	f107 020c 	add.w	r2, r7, #12
    5d48:	6a7b      	ldr	r3, [r7, #36]	; 0x24
    5d4a:	4413      	add	r3, r2
    5d4c:	781b      	ldrb	r3, [r3, #0]
    5d4e:	76fb      	strb	r3, [r7, #27]
    5d50:	6a3a      	ldr	r2, [r7, #32]
    5d52:	6a7b      	ldr	r3, [r7, #36]	; 0x24
    5d54:	1ad3      	subs	r3, r2, r3
    5d56:	3b01      	subs	r3, #1
    5d58:	f107 0228 	add.w	r2, r7, #40	; 0x28
    5d5c:	4413      	add	r3, r2
    5d5e:	f813 2c1c 	ldrb.w	r2, [r3, #-28]
    5d62:	f107 010c 	add.w	r1, r7, #12
    5d66:	6a7b      	ldr	r3, [r7, #36]	; 0x24
    5d68:	440b      	add	r3, r1
    5d6a:	701a      	strb	r2, [r3, #0]
    5d6c:	6a3a      	ldr	r2, [r7, #32]
    5d6e:	6a7b      	ldr	r3, [r7, #36]	; 0x24
    5d70:	1ad3      	subs	r3, r2, r3
    5d72:	3b01      	subs	r3, #1
    5d74:	f107 0128 	add.w	r1, r7, #40	; 0x28
    5d78:	440b      	add	r3, r1
    5d7a:	7efa      	ldrb	r2, [r7, #27]
    5d7c:	f803 2c1c 	strb.w	r2, [r3, #-28]
    5d80:	6a7b      	ldr	r3, [r7, #36]	; 0x24
    5d82:	3301      	adds	r3, #1
    5d84:	627b      	str	r3, [r7, #36]	; 0x24
    5d86:	6a3b      	ldr	r3, [r7, #32]
    5d88:	085a      	lsrs	r2, r3, #1
    5d8a:	6a7b      	ldr	r3, [r7, #36]	; 0x24
    5d8c:	429a      	cmp	r2, r3
    5d8e:	d8d9      	bhi.n	5d44 <vPrintNumber+0x88>
    5d90:	f107 030c 	add.w	r3, r7, #12
    5d94:	4618      	mov	r0, r3
    5d96:	f7ff ff77 	bl	5c88 <vPrintString>
    5d9a:	f246 204c 	movw	r0, #25164	; 0x624c
    5d9e:	f2c0 0000 	movt	r0, #0
    5da2:	f7ff ff71 	bl	5c88 <vPrintString>
    5da6:	3728      	adds	r7, #40	; 0x28
    5da8:	46bd      	mov	sp, r7
    5daa:	bd80      	pop	{r7, pc}

00005dac <main>:
    5dac:	b590      	push	{r4, r7, lr}
    5dae:	b087      	sub	sp, #28
    5db0:	af04      	add	r7, sp, #16
    5db2:	f7ff fe5f 	bl	5a74 <init_led>
    5db6:	f7ff febf 	bl	5b38 <init_rs232>
    5dba:	f7ff ff03 	bl	5bc4 <enable_rs232_interrupts>
    5dbe:	f7ff ff23 	bl	5c08 <enable_rs232>
    5dc2:	f7fd fda1 	bl	3908 <vAppInitialise>
    5dc6:	f7fd f81b 	bl	2e00 <vSemaphoreInitialise>
    5dca:	f7fd f859 	bl	2e80 <vParameterInitialise>
    5dce:	2301      	movs	r3, #1
    5dd0:	9300      	str	r3, [sp, #0]
    5dd2:	4b43      	ldr	r3, [pc, #268]	; (5ee0 <main+0x134>)
    5dd4:	9301      	str	r3, [sp, #4]
    5dd6:	2300      	movs	r3, #0
    5dd8:	9302      	str	r3, [sp, #8]
    5dda:	2300      	movs	r3, #0
    5ddc:	9303      	str	r3, [sp, #12]
    5dde:	f243 60d1 	movw	r0, #14033	; 0x36d1
    5de2:	f2c0 0000 	movt	r0, #0
    5de6:	f246 2150 	movw	r1, #25168	; 0x6250
    5dea:	f2c0 0100 	movt	r1, #0
    5dee:	2280      	movs	r2, #128	; 0x80
    5df0:	4b3c      	ldr	r3, [pc, #240]	; (5ee4 <main+0x138>)
    5df2:	f7fe fb15 	bl	4420 <xTaskGenericCreate>
    5df6:	2300      	movs	r3, #0
    5df8:	607b      	str	r3, [r7, #4]
    5dfa:	e067      	b.n	5ecc <main+0x120>
    5dfc:	687a      	ldr	r2, [r7, #4]
    5dfe:	4613      	mov	r3, r2
    5e00:	005b      	lsls	r3, r3, #1
    5e02:	4413      	add	r3, r2
    5e04:	226c      	movs	r2, #108	; 0x6c
    5e06:	fb02 f203 	mul.w	r2, r2, r3
    5e0a:	f642 7330 	movw	r3, #12080	; 0x2f30
    5e0e:	f2c2 0301 	movt	r3, #8193	; 0x2001
    5e12:	18d4      	adds	r4, r2, r3
    5e14:	687b      	ldr	r3, [r7, #4]
    5e16:	f1c3 0302 	rsb	r3, r3, #2
    5e1a:	4619      	mov	r1, r3
    5e1c:	687a      	ldr	r2, [r7, #4]
    5e1e:	4613      	mov	r3, r2
    5e20:	005b      	lsls	r3, r3, #1
    5e22:	4413      	add	r3, r2
    5e24:	009a      	lsls	r2, r3, #2
    5e26:	f243 134c 	movw	r3, #12620	; 0x314c
    5e2a:	f2c2 0301 	movt	r3, #8193	; 0x2001
    5e2e:	4413      	add	r3, r2
    5e30:	9100      	str	r1, [sp, #0]
    5e32:	9301      	str	r3, [sp, #4]
    5e34:	2300      	movs	r3, #0
    5e36:	9302      	str	r3, [sp, #8]
    5e38:	2300      	movs	r3, #0
    5e3a:	9303      	str	r3, [sp, #12]
    5e3c:	f243 3005 	movw	r0, #13061	; 0x3305
    5e40:	f2c0 0000 	movt	r0, #0
    5e44:	f246 215c 	movw	r1, #25180	; 0x625c
    5e48:	f2c0 0100 	movt	r1, #0
    5e4c:	2280      	movs	r2, #128	; 0x80
    5e4e:	4623      	mov	r3, r4
    5e50:	f7fe fae6 	bl	4420 <xTaskGenericCreate>
    5e54:	2301      	movs	r3, #1
    5e56:	603b      	str	r3, [r7, #0]
    5e58:	e032      	b.n	5ec0 <main+0x114>
    5e5a:	687a      	ldr	r2, [r7, #4]
    5e5c:	4613      	mov	r3, r2
    5e5e:	005b      	lsls	r3, r3, #1
    5e60:	441a      	add	r2, r3
    5e62:	683b      	ldr	r3, [r7, #0]
    5e64:	4413      	add	r3, r2
    5e66:	226c      	movs	r2, #108	; 0x6c
    5e68:	fb02 f203 	mul.w	r2, r2, r3
    5e6c:	f642 7330 	movw	r3, #12080	; 0x2f30
    5e70:	f2c2 0301 	movt	r3, #8193	; 0x2001
    5e74:	18d4      	adds	r4, r2, r3
    5e76:	687b      	ldr	r3, [r7, #4]
    5e78:	f1c3 0302 	rsb	r3, r3, #2
    5e7c:	4619      	mov	r1, r3
    5e7e:	687a      	ldr	r2, [r7, #4]
    5e80:	4613      	mov	r3, r2
    5e82:	005b      	lsls	r3, r3, #1
    5e84:	441a      	add	r2, r3
    5e86:	683b      	ldr	r3, [r7, #0]
    5e88:	4413      	add	r3, r2
    5e8a:	009a      	lsls	r2, r3, #2
    5e8c:	f243 134c 	movw	r3, #12620	; 0x314c
    5e90:	f2c2 0301 	movt	r3, #8193	; 0x2001
    5e94:	4413      	add	r3, r2
    5e96:	9100      	str	r1, [sp, #0]
    5e98:	9301      	str	r3, [sp, #4]
    5e9a:	2300      	movs	r3, #0
    5e9c:	9302      	str	r3, [sp, #8]
    5e9e:	2300      	movs	r3, #0
    5ea0:	9303      	str	r3, [sp, #12]
    5ea2:	f243 40fd 	movw	r0, #13565	; 0x34fd
    5ea6:	f2c0 0000 	movt	r0, #0
    5eaa:	f246 2164 	movw	r1, #25188	; 0x6264
    5eae:	f2c0 0100 	movt	r1, #0
    5eb2:	2280      	movs	r2, #128	; 0x80
    5eb4:	4623      	mov	r3, r4
    5eb6:	f7fe fab3 	bl	4420 <xTaskGenericCreate>
    5eba:	683b      	ldr	r3, [r7, #0]
    5ebc:	3301      	adds	r3, #1
    5ebe:	603b      	str	r3, [r7, #0]
    5ec0:	683b      	ldr	r3, [r7, #0]
    5ec2:	2b02      	cmp	r3, #2
    5ec4:	ddc9      	ble.n	5e5a <main+0xae>
    5ec6:	687b      	ldr	r3, [r7, #4]
    5ec8:	3301      	adds	r3, #1
    5eca:	607b      	str	r3, [r7, #4]
    5ecc:	687b      	ldr	r3, [r7, #4]
    5ece:	2b00      	cmp	r3, #0
    5ed0:	dd94      	ble.n	5dfc <main+0x50>
    5ed2:	f7fe fe23 	bl	4b1c <vTaskStartScheduler>
    5ed6:	2300      	movs	r3, #0
    5ed8:	4618      	mov	r0, r3
    5eda:	370c      	adds	r7, #12
    5edc:	46bd      	mov	sp, r7
    5ede:	bd90      	pop	{r4, r7, pc}
    5ee0:	20013158 	.word	0x20013158
    5ee4:	20013074 	.word	0x20013074

00005ee8 <myTraceCreate>:
    5ee8:	b480      	push	{r7}
    5eea:	af00      	add	r7, sp, #0
    5eec:	46bd      	mov	sp, r7
    5eee:	f85d 7b04 	ldr.w	r7, [sp], #4
    5ef2:	4770      	bx	lr

00005ef4 <myTraceSwitchedIn>:
    5ef4:	b480      	push	{r7}
    5ef6:	af00      	add	r7, sp, #0
    5ef8:	46bd      	mov	sp, r7
    5efa:	f85d 7b04 	ldr.w	r7, [sp], #4
    5efe:	4770      	bx	lr

00005f00 <myTraceSwitchedOut>:
    5f00:	b480      	push	{r7}
    5f02:	af00      	add	r7, sp, #0
    5f04:	46bd      	mov	sp, r7
    5f06:	f85d 7b04 	ldr.w	r7, [sp], #4
    5f0a:	4770      	bx	lr

00005f0c <vApplicationTickHook>:
    5f0c:	b580      	push	{r7, lr}
    5f0e:	b082      	sub	sp, #8
    5f10:	af00      	add	r7, sp, #0
    5f12:	f7fe feed 	bl	4cf0 <xTaskGetTickCount>
    5f16:	6038      	str	r0, [r7, #0]
    5f18:	f240 0338 	movw	r3, #56	; 0x38
    5f1c:	f2c2 0300 	movt	r3, #8192	; 0x2000
    5f20:	681b      	ldr	r3, [r3, #0]
    5f22:	2b01      	cmp	r3, #1
    5f24:	d11f      	bne.n	5f66 <vApplicationTickHook+0x5a>
    5f26:	683b      	ldr	r3, [r7, #0]
    5f28:	2b28      	cmp	r3, #40	; 0x28
    5f2a:	d11c      	bne.n	5f66 <vApplicationTickHook+0x5a>
    5f2c:	2300      	movs	r3, #0
    5f2e:	607b      	str	r3, [r7, #4]
    5f30:	e010      	b.n	5f54 <vApplicationTickHook+0x48>
    5f32:	687b      	ldr	r3, [r7, #4]
    5f34:	005a      	lsls	r2, r3, #1
    5f36:	f243 132c 	movw	r3, #12588	; 0x312c
    5f3a:	f2c2 0301 	movt	r3, #8193	; 0x2001
    5f3e:	f853 3022 	ldr.w	r3, [r3, r2, lsl #2]
    5f42:	4618      	mov	r0, r3
    5f44:	2100      	movs	r1, #0
    5f46:	2200      	movs	r2, #0
    5f48:	2300      	movs	r3, #0
    5f4a:	f7fd ff57 	bl	3dfc <xQueueGenericSend>
    5f4e:	687b      	ldr	r3, [r7, #4]
    5f50:	3301      	adds	r3, #1
    5f52:	607b      	str	r3, [r7, #4]
    5f54:	687b      	ldr	r3, [r7, #4]
    5f56:	2b00      	cmp	r3, #0
    5f58:	ddeb      	ble.n	5f32 <vApplicationTickHook+0x26>
    5f5a:	f240 0338 	movw	r3, #56	; 0x38
    5f5e:	f2c2 0300 	movt	r3, #8192	; 0x2000
    5f62:	2200      	movs	r2, #0
    5f64:	601a      	str	r2, [r3, #0]
    5f66:	f243 03f4 	movw	r3, #12532	; 0x30f4
    5f6a:	f2c2 0301 	movt	r3, #8193	; 0x2001
    5f6e:	681b      	ldr	r3, [r3, #0]
    5f70:	005a      	lsls	r2, r3, #1
    5f72:	683b      	ldr	r3, [r7, #0]
    5f74:	429a      	cmp	r2, r3
    5f76:	d817      	bhi.n	5fa8 <vApplicationTickHook+0x9c>
    5f78:	f243 03f4 	movw	r3, #12532	; 0x30f4
    5f7c:	f2c2 0301 	movt	r3, #8193	; 0x2001
    5f80:	681a      	ldr	r2, [r3, #0]
    5f82:	683b      	ldr	r3, [r7, #0]
    5f84:	fbb3 f1f2 	udiv	r1, r3, r2
    5f88:	fb02 f201 	mul.w	r2, r2, r1
    5f8c:	1a9b      	subs	r3, r3, r2
    5f8e:	2b00      	cmp	r3, #0
    5f90:	d10a      	bne.n	5fa8 <vApplicationTickHook+0x9c>
    5f92:	f243 132c 	movw	r3, #12588	; 0x312c
    5f96:	f2c2 0301 	movt	r3, #8193	; 0x2001
    5f9a:	68db      	ldr	r3, [r3, #12]
    5f9c:	4618      	mov	r0, r3
    5f9e:	2100      	movs	r1, #0
    5fa0:	2200      	movs	r2, #0
    5fa2:	2300      	movs	r3, #0
    5fa4:	f7fd ff2a 	bl	3dfc <xQueueGenericSend>
    5fa8:	3708      	adds	r7, #8
    5faa:	46bd      	mov	sp, r7
    5fac:	bd80      	pop	{r7, pc}
    5fae:	bf00      	nop

00005fb0 <memcpy>:
    5fb0:	2a0f      	cmp	r2, #15
    5fb2:	b4f0      	push	{r4, r5, r6, r7}
    5fb4:	d945      	bls.n	6042 <memcpy+0x92>
    5fb6:	ea40 0301 	orr.w	r3, r0, r1
    5fba:	079b      	lsls	r3, r3, #30
    5fbc:	d145      	bne.n	604a <memcpy+0x9a>
    5fbe:	f1a2 0710 	sub.w	r7, r2, #16
    5fc2:	460c      	mov	r4, r1
    5fc4:	4603      	mov	r3, r0
    5fc6:	093f      	lsrs	r7, r7, #4
    5fc8:	eb00 1607 	add.w	r6, r0, r7, lsl #4
    5fcc:	3610      	adds	r6, #16
    5fce:	6825      	ldr	r5, [r4, #0]
    5fd0:	3310      	adds	r3, #16
    5fd2:	3410      	adds	r4, #16
    5fd4:	f843 5c10 	str.w	r5, [r3, #-16]
    5fd8:	f854 5c0c 	ldr.w	r5, [r4, #-12]
    5fdc:	f843 5c0c 	str.w	r5, [r3, #-12]
    5fe0:	f854 5c08 	ldr.w	r5, [r4, #-8]
    5fe4:	f843 5c08 	str.w	r5, [r3, #-8]
    5fe8:	f854 5c04 	ldr.w	r5, [r4, #-4]
    5fec:	f843 5c04 	str.w	r5, [r3, #-4]
    5ff0:	42b3      	cmp	r3, r6
    5ff2:	d1ec      	bne.n	5fce <memcpy+0x1e>
    5ff4:	1c7b      	adds	r3, r7, #1
    5ff6:	f002 0c0f 	and.w	ip, r2, #15
    5ffa:	f1bc 0f03 	cmp.w	ip, #3
    5ffe:	ea4f 1303 	mov.w	r3, r3, lsl #4
    6002:	4419      	add	r1, r3
    6004:	4403      	add	r3, r0
    6006:	d922      	bls.n	604e <memcpy+0x9e>
    6008:	460e      	mov	r6, r1
    600a:	461d      	mov	r5, r3
    600c:	4664      	mov	r4, ip
    600e:	f856 7b04 	ldr.w	r7, [r6], #4
    6012:	3c04      	subs	r4, #4
    6014:	2c03      	cmp	r4, #3
    6016:	f845 7b04 	str.w	r7, [r5], #4
    601a:	d8f8      	bhi.n	600e <memcpy+0x5e>
    601c:	f1ac 0404 	sub.w	r4, ip, #4
    6020:	f002 0203 	and.w	r2, r2, #3
    6024:	f024 0403 	bic.w	r4, r4, #3
    6028:	3404      	adds	r4, #4
    602a:	4423      	add	r3, r4
    602c:	4421      	add	r1, r4
    602e:	b132      	cbz	r2, 603e <memcpy+0x8e>
    6030:	440a      	add	r2, r1
    6032:	f811 4b01 	ldrb.w	r4, [r1], #1
    6036:	4291      	cmp	r1, r2
    6038:	f803 4b01 	strb.w	r4, [r3], #1
    603c:	d1f9      	bne.n	6032 <memcpy+0x82>
    603e:	bcf0      	pop	{r4, r5, r6, r7}
    6040:	4770      	bx	lr
    6042:	4603      	mov	r3, r0
    6044:	2a00      	cmp	r2, #0
    6046:	d1f3      	bne.n	6030 <memcpy+0x80>
    6048:	e7f9      	b.n	603e <memcpy+0x8e>
    604a:	4603      	mov	r3, r0
    604c:	e7f0      	b.n	6030 <memcpy+0x80>
    604e:	4662      	mov	r2, ip
    6050:	2a00      	cmp	r2, #0
    6052:	d1ed      	bne.n	6030 <memcpy+0x80>
    6054:	e7f3      	b.n	603e <memcpy+0x8e>
    6056:	bf00      	nop

00006058 <memset>:
    6058:	0783      	lsls	r3, r0, #30
    605a:	b4f0      	push	{r4, r5, r6, r7}
    605c:	d048      	beq.n	60f0 <memset+0x98>
    605e:	1e54      	subs	r4, r2, #1
    6060:	2a00      	cmp	r2, #0
    6062:	d043      	beq.n	60ec <memset+0x94>
    6064:	b2cd      	uxtb	r5, r1
    6066:	4603      	mov	r3, r0
    6068:	e002      	b.n	6070 <memset+0x18>
    606a:	2c00      	cmp	r4, #0
    606c:	d03e      	beq.n	60ec <memset+0x94>
    606e:	4614      	mov	r4, r2
    6070:	f803 5b01 	strb.w	r5, [r3], #1
    6074:	f013 0f03 	tst.w	r3, #3
    6078:	f104 32ff 	add.w	r2, r4, #4294967295
    607c:	d1f5      	bne.n	606a <memset+0x12>
    607e:	2c03      	cmp	r4, #3
    6080:	d92d      	bls.n	60de <memset+0x86>
    6082:	b2cd      	uxtb	r5, r1
    6084:	2c0f      	cmp	r4, #15
    6086:	ea45 2505 	orr.w	r5, r5, r5, lsl #8
    608a:	ea45 4505 	orr.w	r5, r5, r5, lsl #16
    608e:	d918      	bls.n	60c2 <memset+0x6a>
    6090:	f1a4 0710 	sub.w	r7, r4, #16
    6094:	f103 0610 	add.w	r6, r3, #16
    6098:	461a      	mov	r2, r3
    609a:	093f      	lsrs	r7, r7, #4
    609c:	eb06 1607 	add.w	r6, r6, r7, lsl #4
    60a0:	6015      	str	r5, [r2, #0]
    60a2:	3210      	adds	r2, #16
    60a4:	f842 5c0c 	str.w	r5, [r2, #-12]
    60a8:	f842 5c08 	str.w	r5, [r2, #-8]
    60ac:	f842 5c04 	str.w	r5, [r2, #-4]
    60b0:	42b2      	cmp	r2, r6
    60b2:	d1f5      	bne.n	60a0 <memset+0x48>
    60b4:	f004 040f 	and.w	r4, r4, #15
    60b8:	3701      	adds	r7, #1
    60ba:	2c03      	cmp	r4, #3
    60bc:	eb03 1307 	add.w	r3, r3, r7, lsl #4
    60c0:	d90d      	bls.n	60de <memset+0x86>
    60c2:	461e      	mov	r6, r3
    60c4:	4622      	mov	r2, r4
    60c6:	3a04      	subs	r2, #4
    60c8:	f846 5b04 	str.w	r5, [r6], #4
    60cc:	2a03      	cmp	r2, #3
    60ce:	d8fa      	bhi.n	60c6 <memset+0x6e>
    60d0:	1f22      	subs	r2, r4, #4
    60d2:	f004 0403 	and.w	r4, r4, #3
    60d6:	f022 0203 	bic.w	r2, r2, #3
    60da:	3204      	adds	r2, #4
    60dc:	4413      	add	r3, r2
    60de:	b12c      	cbz	r4, 60ec <memset+0x94>
    60e0:	b2c9      	uxtb	r1, r1
    60e2:	441c      	add	r4, r3
    60e4:	f803 1b01 	strb.w	r1, [r3], #1
    60e8:	42a3      	cmp	r3, r4
    60ea:	d1fb      	bne.n	60e4 <memset+0x8c>
    60ec:	bcf0      	pop	{r4, r5, r6, r7}
    60ee:	4770      	bx	lr
    60f0:	4614      	mov	r4, r2
    60f2:	4603      	mov	r3, r0
    60f4:	e7c3      	b.n	607e <memset+0x26>
    60f6:	bf00      	nop

000060f8 <strncpy>:
    60f8:	ea40 0301 	orr.w	r3, r0, r1
    60fc:	079b      	lsls	r3, r3, #30
    60fe:	b470      	push	{r4, r5, r6}
    6100:	d12b      	bne.n	615a <strncpy+0x62>
    6102:	2a03      	cmp	r2, #3
    6104:	bf84      	itt	hi
    6106:	460b      	movhi	r3, r1
    6108:	4605      	movhi	r5, r0
    610a:	d926      	bls.n	615a <strncpy+0x62>
    610c:	4619      	mov	r1, r3
    610e:	f853 4b04 	ldr.w	r4, [r3], #4
    6112:	f1a4 3601 	sub.w	r6, r4, #16843009	; 0x1010101
    6116:	ea26 0604 	bic.w	r6, r6, r4
    611a:	f016 3f80 	tst.w	r6, #2155905152	; 0x80808080
    611e:	d105      	bne.n	612c <strncpy+0x34>
    6120:	3a04      	subs	r2, #4
    6122:	f845 4b04 	str.w	r4, [r5], #4
    6126:	2a03      	cmp	r2, #3
    6128:	4619      	mov	r1, r3
    612a:	d8ef      	bhi.n	610c <strncpy+0x14>
    612c:	b19a      	cbz	r2, 6156 <strncpy+0x5e>
    612e:	780c      	ldrb	r4, [r1, #0]
    6130:	3a01      	subs	r2, #1
    6132:	1c6b      	adds	r3, r5, #1
    6134:	702c      	strb	r4, [r5, #0]
    6136:	b13c      	cbz	r4, 6148 <strncpy+0x50>
    6138:	b16a      	cbz	r2, 6156 <strncpy+0x5e>
    613a:	f811 4f01 	ldrb.w	r4, [r1, #1]!
    613e:	3a01      	subs	r2, #1
    6140:	f803 4b01 	strb.w	r4, [r3], #1
    6144:	2c00      	cmp	r4, #0
    6146:	d1f7      	bne.n	6138 <strncpy+0x40>
    6148:	b12a      	cbz	r2, 6156 <strncpy+0x5e>
    614a:	441a      	add	r2, r3
    614c:	2100      	movs	r1, #0
    614e:	f803 1b01 	strb.w	r1, [r3], #1
    6152:	4293      	cmp	r3, r2
    6154:	d1fb      	bne.n	614e <strncpy+0x56>
    6156:	bc70      	pop	{r4, r5, r6}
    6158:	4770      	bx	lr
    615a:	4605      	mov	r5, r0
    615c:	e7e6      	b.n	612c <strncpy+0x34>
    615e:	bf00      	nop

00006160 <Reset_Handler>:
    6160:	2100      	movs	r1, #0
    6162:	e003      	b.n	616c <LoopCopyDataInit>

00006164 <CopyDataInit>:
    6164:	4b0a      	ldr	r3, [pc, #40]	; (6190 <LoopFillZerobss+0x10>)
    6166:	585b      	ldr	r3, [r3, r1]
    6168:	5043      	str	r3, [r0, r1]
    616a:	3104      	adds	r1, #4

0000616c <LoopCopyDataInit>:
    616c:	4809      	ldr	r0, [pc, #36]	; (6194 <LoopFillZerobss+0x14>)
    616e:	4b0a      	ldr	r3, [pc, #40]	; (6198 <LoopFillZerobss+0x18>)
    6170:	1842      	adds	r2, r0, r1
    6172:	429a      	cmp	r2, r3
    6174:	d3f6      	bcc.n	6164 <CopyDataInit>
    6176:	4a09      	ldr	r2, [pc, #36]	; (619c <LoopFillZerobss+0x1c>)
    6178:	e002      	b.n	6180 <LoopFillZerobss>

0000617a <FillZerobss>:
    617a:	2300      	movs	r3, #0
    617c:	f842 3b04 	str.w	r3, [r2], #4

00006180 <LoopFillZerobss>:
    6180:	4b07      	ldr	r3, [pc, #28]	; (61a0 <LoopFillZerobss+0x20>)
    6182:	429a      	cmp	r2, r3
    6184:	d3f9      	bcc.n	617a <FillZerobss>
    6186:	f7fa f8d9 	bl	33c <SystemInit>
    618a:	f7ff fe0f 	bl	5dac <main>
    618e:	4770      	bx	lr
    6190:	0000626c 	.word	0x0000626c
    6194:	20000000 	.word	0x20000000
    6198:	2000003c 	.word	0x2000003c
    619c:	20000040 	.word	0x20000040
    61a0:	20012f30 	.word	0x20012f30

000061a4 <ADC1_2_IRQHandler>:
    61a4:	e7fe      	b.n	61a4 <ADC1_2_IRQHandler>
    61a6:	0000      	movs	r0, r0
    61a8:	6c6c616d 	.word	0x6c6c616d
    61ac:	6620636f 	.word	0x6620636f
    61b0:	6520726f 	.word	0x6520726f
    61b4:	746e6576 	.word	0x746e6576
    61b8:	61747320 	.word	0x61747320
    61bc:	66206b63 	.word	0x66206b63
    61c0:	656c6961 	.word	0x656c6961
    61c4:	000d0a64 	.word	0x000d0a64
    61c8:	72656874 	.word	0x72656874
    61cc:	72612065 	.word	0x72612065
    61d0:	65732065 	.word	0x65732065
    61d4:	726f736e 	.word	0x726f736e
    61d8:	73696d20 	.word	0x73696d20
    61dc:	676e6973 	.word	0x676e6973
    61e0:	61656420 	.word	0x61656420
    61e4:	6e696c64 	.word	0x6e696c64
    61e8:	000d0a65 	.word	0x000d0a65
    61ec:	72656874 	.word	0x72656874
    61f0:	72612065 	.word	0x72612065
    61f4:	65732065 	.word	0x65732065
    61f8:	6e617672 	.word	0x6e617672
    61fc:	6d207374 	.word	0x6d207374
    6200:	69737369 	.word	0x69737369
    6204:	6420676e 	.word	0x6420676e
    6208:	6c646165 	.word	0x6c646165
    620c:	0a656e69 	.word	0x0a656e69
    6210:	0000000d 	.word	0x0000000d
    6214:	6f727245 	.word	0x6f727245
    6218:	54203a72 	.word	0x54203a72
    621c:	20736968 	.word	0x20736968
    6220:	6e657665 	.word	0x6e657665
    6224:	61682074 	.word	0x61682074
    6228:	72612073 	.word	0x72612073
    622c:	65766972 	.word	0x65766972
    6230:	0a212164 	.word	0x0a212164
    6234:	0000000d 	.word	0x0000000d
    6238:	454c4449 	.word	0x454c4449
    623c:	00000000 	.word	0x00000000

00006240 <ulKernelPriority>:
    6240:	0000007f                                ....

00006244 <heapSTRUCT_SIZE>:
    6244:	00000010 000d0a30 00000d0a 65532d52     ....0.......R-Se
    6254:	6e617672 00000074 736e6553 0000726f     rvant...Sensor..
    6264:	76726573 00746e61                       servant.
